
wmt_core.o:     file format elf32-littlearm


Disassembly of section .text:

00000000 <opfunc_stp_rst>:
       0:	e1a0c00d 	mov	ip, sp
       4:	e92dd800 	push	{fp, ip, lr, pc}
       8:	e24cb004 	sub	fp, ip, #4
       c:	e3a00000 	mov	r0, #0
      10:	e89da800 	ldm	sp, {fp, sp, pc}

00000014 <wmt_core_patch_check>:
      14:	e1a0c00d 	mov	ip, sp
      18:	e92dd800 	push	{fp, ip, lr, pc}
      1c:	e24cb004 	sub	fp, ip, #4
      20:	e24dd008 	sub	sp, sp, #8
      24:	e0213000 	eor	r3, r1, r0
      28:	e1a0c000 	mov	ip, r0
      2c:	e31300f0 	tst	r3, #240	; 0xf0
      30:	03a00001 	moveq	r0, #1
      34:	0a000006 	beq	54 <wmt_core_patch_check+0x40>
      38:	e1a03001 	mov	r3, r1
      3c:	e59f0018 	ldr	r0, [pc, #24]	; 5c <wmt_core_patch_check+0x48>
      40:	e59f1018 	ldr	r1, [pc, #24]	; 60 <wmt_core_patch_check+0x4c>
      44:	e30023a3 	movw	r2, #931	; 0x3a3
      48:	e58dc000 	str	ip, [sp]
      4c:	ebfffffe 	bl	0 <osal_err_print>
      50:	e3a00000 	mov	r0, #0
      54:	e24bd00c 	sub	sp, fp, #12
      58:	e89da800 	ldm	sp, {fp, sp, pc}
	...

00000064 <wmt_core_opid_handler>:
      64:	e1a0c00d 	mov	ip, sp
      68:	e92dd800 	push	{fp, ip, lr, pc}
      6c:	e24cb004 	sub	fp, ip, #4
      70:	e5903000 	ldr	r3, [r0]
      74:	e59f102c 	ldr	r1, [pc, #44]	; a8 <wmt_core_opid_handler+0x44>
      78:	e0812103 	add	r2, r1, r3, lsl #2
      7c:	e5922018 	ldr	r2, [r2, #24]
      80:	e3520000 	cmp	r2, #0
      84:	0a000001 	beq	90 <wmt_core_opid_handler+0x2c>
      88:	e12fff32 	blx	r2
      8c:	e89da800 	ldm	sp, {fp, sp, pc}
      90:	e2811064 	add	r1, r1, #100	; 0x64
      94:	e3002209 	movw	r2, #521	; 0x209
      98:	e59f000c 	ldr	r0, [pc, #12]	; ac <wmt_core_opid_handler+0x48>
      9c:	ebfffffe 	bl	0 <osal_err_print>
      a0:	e3e00001 	mvn	r0, #1
      a4:	e89da800 	ldm	sp, {fp, sp, pc}
      a8:	00000000 	andeq	r0, r0, r0
      ac:	00000048 	andeq	r0, r0, r8, asr #32

000000b0 <wmt_core_opid>:
      b0:	e1a0c00d 	mov	ip, sp
      b4:	e92dd800 	push	{fp, ip, lr, pc}
      b8:	e24cb004 	sub	fp, ip, #4
      bc:	e2503000 	subs	r3, r0, #0
      c0:	0a00000a 	beq	f0 <wmt_core_opid+0x40>
      c4:	e5933000 	ldr	r3, [r3]
      c8:	e3530012 	cmp	r3, #18
      cc:	8a000001 	bhi	d8 <wmt_core_opid+0x28>
      d0:	ebfffffe 	bl	64 <wmt_core_opid_handler>
      d4:	e89da800 	ldm	sp, {fp, sp, pc}
      d8:	e59f0028 	ldr	r0, [pc, #40]	; 108 <wmt_core_opid+0x58>
      dc:	e3002219 	movw	r2, #537	; 0x219
      e0:	e59f1024 	ldr	r1, [pc, #36]	; 10c <wmt_core_opid+0x5c>
      e4:	ebfffffe 	bl	0 <osal_err_print>
      e8:	e3e00001 	mvn	r0, #1
      ec:	e89da800 	ldm	sp, {fp, sp, pc}
      f0:	e59f0018 	ldr	r0, [pc, #24]	; 110 <wmt_core_opid+0x60>
      f4:	e3002213 	movw	r2, #531	; 0x213
      f8:	e59f100c 	ldr	r1, [pc, #12]	; 10c <wmt_core_opid+0x5c>
      fc:	ebfffffe 	bl	0 <osal_err_print>
     100:	e3e00000 	mvn	r0, #0
     104:	e89da800 	ldm	sp, {fp, sp, pc}
     108:	0000008c 	andeq	r0, r0, ip, lsl #1
     10c:	0000007c 	andeq	r0, r0, ip, ror r0
     110:	0000006c 	andeq	r0, r0, ip, rrx

00000114 <wmt_core_deinit>:
     114:	e1a0c00d 	mov	ip, sp
     118:	e92dd800 	push	{fp, ip, lr, pc}
     11c:	e24cb004 	sub	fp, ip, #4
     120:	e3000000 	movw	r0, #0
     124:	e3a01000 	mov	r1, #0
     128:	e3a02054 	mov	r2, #84	; 0x54
     12c:	e3400000 	movt	r0, #0
     130:	ebfffffe 	bl	0 <osal_memset>
     134:	e3a00000 	mov	r0, #0
     138:	e89da800 	ldm	sp, {fp, sp, pc}

0000013c <wmt_core_init>:
     13c:	e1a0c00d 	mov	ip, sp
     140:	e92dd800 	push	{fp, ip, lr, pc}
     144:	e24cb004 	sub	fp, ip, #4
     148:	e3a02054 	mov	r2, #84	; 0x54
     14c:	e59f0020 	ldr	r0, [pc, #32]	; 174 <wmt_core_init+0x38>
     150:	e3a01000 	mov	r1, #0
     154:	ebfffffe 	bl	0 <osal_memset>
     158:	e59f3018 	ldr	r3, [pc, #24]	; 178 <wmt_core_init+0x3c>
     15c:	e3a00000 	mov	r0, #0
     160:	e2832024 	add	r2, r3, #36	; 0x24
     164:	e5a30004 	str	r0, [r3, #4]!
     168:	e1530002 	cmp	r3, r2
     16c:	1afffffc 	bne	164 <wmt_core_init+0x28>
     170:	e89da800 	ldm	sp, {fp, sp, pc}
     174:	00000000 	andeq	r0, r0, r0
     178:	fffffffc 			; <UNDEFINED> instruction: 0xfffffffc

0000017c <wmt_core_dump_data>:
     17c:	e1a0c00d 	mov	ip, sp
     180:	e92dd8f0 	push	{r4, r5, r6, r7, fp, ip, lr, pc}
     184:	e24cb004 	sub	fp, ip, #4
     188:	e59f40a4 	ldr	r4, [pc, #164]	; 234 <wmt_core_dump_data+0xb8>
     18c:	e1a06000 	mov	r6, r0
     190:	e1a05002 	mov	r5, r2
     194:	e5943000 	ldr	r3, [r4]
     198:	e3530001 	cmp	r3, #1
     19c:	9a000005 	bls	1b8 <wmt_core_dump_data+0x3c>
     1a0:	e1a02001 	mov	r2, r1
     1a4:	e1a03005 	mov	r3, r5
     1a8:	e59f0088 	ldr	r0, [pc, #136]	; 238 <wmt_core_dump_data+0xbc>
     1ac:	e59f1088 	ldr	r1, [pc, #136]	; 23c <wmt_core_dump_data+0xc0>
     1b0:	ebfffffe 	bl	0 <osal_info_print>
     1b4:	e5943000 	ldr	r3, [r4]
     1b8:	e3550000 	cmp	r5, #0
     1bc:	0a000016 	beq	21c <wmt_core_dump_data+0xa0>
     1c0:	e3a02000 	mov	r2, #0
     1c4:	e1a07002 	mov	r7, r2
     1c8:	ea000000 	b	1d0 <wmt_core_dump_data+0x54>
     1cc:	e5943000 	ldr	r3, [r4]
     1d0:	e312000f 	tst	r2, #15
     1d4:	1a000005 	bne	1f0 <wmt_core_dump_data+0x74>
     1d8:	e3530001 	cmp	r3, #1
     1dc:	e59f1058 	ldr	r1, [pc, #88]	; 23c <wmt_core_dump_data+0xc0>
     1e0:	e59f0058 	ldr	r0, [pc, #88]	; 240 <wmt_core_dump_data+0xc4>
     1e4:	9a000008 	bls	20c <wmt_core_dump_data+0x90>
     1e8:	ebfffffe 	bl	0 <osal_info_print>
     1ec:	e5943000 	ldr	r3, [r4]
     1f0:	e3530001 	cmp	r3, #1
     1f4:	e59f1040 	ldr	r1, [pc, #64]	; 23c <wmt_core_dump_data+0xc0>
     1f8:	e59f0044 	ldr	r0, [pc, #68]	; 244 <wmt_core_dump_data+0xc8>
     1fc:	9a000002 	bls	20c <wmt_core_dump_data+0x90>
     200:	e7d62007 	ldrb	r2, [r6, r7]
     204:	ebfffffe 	bl	0 <osal_info_print>
     208:	e5943000 	ldr	r3, [r4]
     20c:	e2877001 	add	r7, r7, #1
     210:	e1570005 	cmp	r7, r5
     214:	e1a02007 	mov	r2, r7
     218:	1affffeb 	bne	1cc <wmt_core_dump_data+0x50>
     21c:	e3530001 	cmp	r3, #1
     220:	989da8f0 	ldmls	sp, {r4, r5, r6, r7, fp, sp, pc}
     224:	e59f1010 	ldr	r1, [pc, #16]	; 23c <wmt_core_dump_data+0xc0>
     228:	e59f0018 	ldr	r0, [pc, #24]	; 248 <wmt_core_dump_data+0xcc>
     22c:	ebfffffe 	bl	0 <osal_info_print>
     230:	e89da8f0 	ldm	sp, {r4, r5, r6, r7, fp, sp, pc}
     234:	00000000 	andeq	r0, r0, r0
     238:	000000b0 	strheq	r0, [r0], -r0	; <UNPREDICTABLE>
     23c:	0000008c 	andeq	r0, r0, ip, lsl #1
     240:	000000c8 	andeq	r0, r0, r8, asr #1
     244:	000000d8 	ldrdeq	r0, [r0], -r8
     248:	000000f0 	strdeq	r0, [r0], -r0	; <UNPREDICTABLE>

0000024c <opfunc_gpio_ctrl>:
     24c:	e1a0c00d 	mov	ip, sp
     250:	e92dd8f0 	push	{r4, r5, r6, r7, fp, ip, lr, pc}
     254:	e24cb004 	sub	fp, ip, #4
     258:	e24dd008 	sub	sp, sp, #8
     25c:	e59f409c 	ldr	r4, [pc, #156]	; 300 <opfunc_gpio_ctrl+0xb4>
     260:	e5943010 	ldr	r3, [r4, #16]
     264:	e3530002 	cmp	r3, #2
     268:	1a000018 	bne	2d0 <opfunc_gpio_ctrl+0x84>
     26c:	e5943050 	ldr	r3, [r4, #80]	; 0x50
     270:	e593300c 	ldr	r3, [r3, #12]
     274:	e3530000 	cmp	r3, #0
     278:	0a00001a 	beq	2e8 <opfunc_gpio_ctrl+0x9c>
     27c:	e59f2080 	ldr	r2, [pc, #128]	; 304 <opfunc_gpio_ctrl+0xb8>
     280:	e5907010 	ldr	r7, [r0, #16]
     284:	e5906008 	ldr	r6, [r0, #8]
     288:	e5922000 	ldr	r2, [r2]
     28c:	e590500c 	ldr	r5, [r0, #12]
     290:	e3520001 	cmp	r2, #1
     294:	9a000007 	bls	2b8 <opfunc_gpio_ctrl+0x6c>
     298:	e1a03005 	mov	r3, r5
     29c:	e59f0064 	ldr	r0, [pc, #100]	; 308 <opfunc_gpio_ctrl+0xbc>
     2a0:	e1a02006 	mov	r2, r6
     2a4:	e59f1060 	ldr	r1, [pc, #96]	; 30c <opfunc_gpio_ctrl+0xc0>
     2a8:	e58d7000 	str	r7, [sp]
     2ac:	ebfffffe 	bl	0 <osal_info_print>
     2b0:	e5943050 	ldr	r3, [r4, #80]	; 0x50
     2b4:	e593300c 	ldr	r3, [r3, #12]
     2b8:	e1a00006 	mov	r0, r6
     2bc:	e1a01005 	mov	r1, r5
     2c0:	e1a02007 	mov	r2, r7
     2c4:	e12fff33 	blx	r3
     2c8:	e24bd01c 	sub	sp, fp, #28
     2cc:	e89da8f0 	ldm	sp, {r4, r5, r6, r7, fp, sp, pc}
     2d0:	e59f0038 	ldr	r0, [pc, #56]	; 310 <opfunc_gpio_ctrl+0xc4>
     2d4:	e3a02e7f 	mov	r2, #2032	; 0x7f0
     2d8:	e59f102c 	ldr	r1, [pc, #44]	; 30c <opfunc_gpio_ctrl+0xc0>
     2dc:	ebfffffe 	bl	0 <osal_err_print>
     2e0:	e3e00000 	mvn	r0, #0
     2e4:	eafffff7 	b	2c8 <opfunc_gpio_ctrl+0x7c>
     2e8:	e59f0024 	ldr	r0, [pc, #36]	; 314 <opfunc_gpio_ctrl+0xc8>
     2ec:	e30027f5 	movw	r2, #2037	; 0x7f5
     2f0:	e59f1014 	ldr	r1, [pc, #20]	; 30c <opfunc_gpio_ctrl+0xc0>
     2f4:	ebfffffe 	bl	0 <osal_err_print>
     2f8:	e3e00000 	mvn	r0, #0
     2fc:	eafffff1 	b	2c8 <opfunc_gpio_ctrl+0x7c>
	...
     308:	0000016c 	andeq	r0, r0, ip, ror #2
     30c:	000000a0 	andeq	r0, r0, r0, lsr #1
     310:	00000104 	andeq	r0, r0, r4, lsl #2
     314:	00000130 	andeq	r0, r0, r0, lsr r1

00000318 <opfunc_hif_conf>:
     318:	e1a0c00d 	mov	ip, sp
     31c:	e92dd830 	push	{r4, r5, fp, ip, lr, pc}
     320:	e24cb004 	sub	fp, ip, #4
     324:	e5903004 	ldr	r3, [r0, #4]
     328:	e1a04000 	mov	r4, r0
     32c:	e3130001 	tst	r3, #1
     330:	0a000021 	beq	3bc <opfunc_hif_conf+0xa4>
     334:	e59f3098 	ldr	r3, [pc, #152]	; 3d4 <opfunc_hif_conf+0xbc>
     338:	e5932024 	ldr	r2, [r3, #36]	; 0x24
     33c:	e3120001 	tst	r2, #1
     340:	1a00000e 	bne	380 <opfunc_hif_conf+0x68>
     344:	e3822001 	orr	r2, r2, #1
     348:	e5832024 	str	r2, [r3, #36]	; 0x24
     34c:	e59f3084 	ldr	r3, [pc, #132]	; 3d8 <opfunc_hif_conf+0xc0>
     350:	e5933000 	ldr	r3, [r3]
     354:	e3530001 	cmp	r3, #1
     358:	9a000002 	bls	368 <opfunc_hif_conf+0x50>
     35c:	e59f0078 	ldr	r0, [pc, #120]	; 3dc <opfunc_hif_conf+0xc4>
     360:	e59f1078 	ldr	r1, [pc, #120]	; 3e0 <opfunc_hif_conf+0xc8>
     364:	ebfffffe 	bl	0 <osal_info_print>
     368:	e2841008 	add	r1, r4, #8
     36c:	e3a02028 	mov	r2, #40	; 0x28
     370:	e59f006c 	ldr	r0, [pc, #108]	; 3e4 <opfunc_hif_conf+0xcc>
     374:	ebfffffe 	bl	0 <osal_memcpy>
     378:	e3a00000 	mov	r0, #0
     37c:	e89da830 	ldm	sp, {r4, r5, fp, sp, pc}
     380:	e59f2050 	ldr	r2, [pc, #80]	; 3d8 <opfunc_hif_conf+0xc0>
     384:	e5922000 	ldr	r2, [r2]
     388:	e3520001 	cmp	r2, #1
     38c:	9afffff5 	bls	368 <opfunc_hif_conf+0x50>
     390:	e5932028 	ldr	r2, [r3, #40]	; 0x28
     394:	e59f1044 	ldr	r1, [pc, #68]	; 3e0 <opfunc_hif_conf+0xc8>
     398:	e5903008 	ldr	r3, [r0, #8]
     39c:	e59f0044 	ldr	r0, [pc, #68]	; 3e8 <opfunc_hif_conf+0xd0>
     3a0:	ebfffffe 	bl	0 <osal_info_print>
     3a4:	e2841008 	add	r1, r4, #8
     3a8:	e3a02028 	mov	r2, #40	; 0x28
     3ac:	e59f0030 	ldr	r0, [pc, #48]	; 3e4 <opfunc_hif_conf+0xcc>
     3b0:	ebfffffe 	bl	0 <osal_memcpy>
     3b4:	e3a00000 	mov	r0, #0
     3b8:	e89da830 	ldm	sp, {r4, r5, fp, sp, pc}
     3bc:	e59f0028 	ldr	r0, [pc, #40]	; 3ec <opfunc_hif_conf+0xd4>
     3c0:	e30023e7 	movw	r2, #999	; 0x3e7
     3c4:	e59f1014 	ldr	r1, [pc, #20]	; 3e0 <opfunc_hif_conf+0xc8>
     3c8:	ebfffffe 	bl	0 <osal_err_print>
     3cc:	e3e00000 	mvn	r0, #0
     3d0:	e89da830 	ldm	sp, {r4, r5, fp, sp, pc}
	...
     3dc:	00000208 	andeq	r0, r0, r8, lsl #4
     3e0:	000000b4 	strheq	r0, [r0], -r4
     3e4:	00000028 	andeq	r0, r0, r8, lsr #32
     3e8:	000001c4 	andeq	r0, r0, r4, asr #3
     3ec:	0000019c 	muleq	r0, ip, r1

000003f0 <wmt_core_ctrl>:
     3f0:	e1a0c00d 	mov	ip, sp
     3f4:	e92dddf0 	push	{r4, r5, r6, r7, r8, sl, fp, ip, lr, pc}
     3f8:	e24cb004 	sub	fp, ip, #4
     3fc:	e24dd058 	sub	sp, sp, #88	; 0x58
     400:	e2517000 	subs	r7, r1, #0
     404:	e1a08000 	mov	r8, r0
     408:	01a06007 	moveq	r6, r7
     40c:	e24b0068 	sub	r0, fp, #104	; 0x68
     410:	15976000 	ldrne	r6, [r7]
     414:	e3520000 	cmp	r2, #0
     418:	01a05002 	moveq	r5, r2
     41c:	e1a0a002 	mov	sl, r2
     420:	15925000 	ldrne	r5, [r2]
     424:	e50b8068 	str	r8, [fp, #-104]	; 0xffffff98
     428:	e50b6064 	str	r6, [fp, #-100]	; 0xffffff9c
     42c:	e50b5060 	str	r5, [fp, #-96]	; 0xffffffa0
     430:	ebfffffe 	bl	0 <wmt_ctrl>
     434:	e2504000 	subs	r4, r0, #0
     438:	1a000008 	bne	460 <wmt_core_ctrl+0x70>
     43c:	e3570000 	cmp	r7, #0
     440:	151b3064 	ldrne	r3, [fp, #-100]	; 0xffffff9c
     444:	15873000 	strne	r3, [r7]
     448:	e35a0000 	cmp	sl, #0
     44c:	151b3060 	ldrne	r3, [fp, #-96]	; 0xffffffa0
     450:	158a3000 	strne	r3, [sl]
     454:	e1a00004 	mov	r0, r4
     458:	e24bd024 	sub	sp, fp, #36	; 0x24
     45c:	e89dadf0 	ldm	sp, {r4, r5, r6, r7, r8, sl, fp, sp, pc}
     460:	e1a03008 	mov	r3, r8
     464:	e59f102c 	ldr	r1, [pc, #44]	; 498 <wmt_core_ctrl+0xa8>
     468:	e300222f 	movw	r2, #559	; 0x22f
     46c:	e59f0028 	ldr	r0, [pc, #40]	; 49c <wmt_core_ctrl+0xac>
     470:	e58d6000 	str	r6, [sp]
     474:	e58d5004 	str	r5, [sp, #4]
     478:	e58d4008 	str	r4, [sp, #8]
     47c:	ebfffffe 	bl	0 <osal_err_print>
     480:	e59f1018 	ldr	r1, [pc, #24]	; 4a0 <wmt_core_ctrl+0xb0>
     484:	e3a02e23 	mov	r2, #560	; 0x230
     488:	e59f3014 	ldr	r3, [pc, #20]	; 4a4 <wmt_core_ctrl+0xb4>
     48c:	e59f0014 	ldr	r0, [pc, #20]	; 4a8 <wmt_core_ctrl+0xb8>
     490:	ebfffffe 	bl	0 <osal_err_print>
     494:	eaffffee 	b	454 <wmt_core_ctrl+0x64>
     498:	000000c4 	andeq	r0, r0, r4, asr #1
     49c:	0000022c 	andeq	r0, r0, ip, lsr #4
     4a0:	0000027c 	andeq	r0, r0, ip, ror r2
     4a4:	000002ac 	andeq	r0, r0, ip, lsr #5
     4a8:	0000026c 	andeq	r0, r0, ip, ror #4

000004ac <opfunc_hw_rst>:
     4ac:	e1a0c00d 	mov	ip, sp
     4b0:	e92ddff0 	push	{r4, r5, r6, r7, r8, r9, sl, fp, ip, lr, pc}
     4b4:	e24cb004 	sub	fp, ip, #4
     4b8:	e24dd02c 	sub	sp, sp, #44	; 0x2c
     4bc:	e59f5328 	ldr	r5, [pc, #808]	; 7ec <opfunc_hw_rst+0x340>
     4c0:	e5953000 	ldr	r3, [r5]
     4c4:	e3530001 	cmp	r3, #1
     4c8:	959f4320 	ldrls	r4, [pc, #800]	; 7f0 <opfunc_hw_rst+0x344>
     4cc:	9a000013 	bls	520 <opfunc_hw_rst+0x74>
     4d0:	e59f4318 	ldr	r4, [pc, #792]	; 7f0 <opfunc_hw_rst+0x344>
     4d4:	e59f0318 	ldr	r0, [pc, #792]	; 7f4 <opfunc_hw_rst+0x348>
     4d8:	e59f1318 	ldr	r1, [pc, #792]	; 7f8 <opfunc_hw_rst+0x34c>
     4dc:	e594c00c 	ldr	ip, [r4, #12]
     4e0:	e9944040 	ldmib	r4, {r6, lr}
     4e4:	e5947020 	ldr	r7, [r4, #32]
     4e8:	e5948010 	ldr	r8, [r4, #16]
     4ec:	e594a018 	ldr	sl, [r4, #24]
     4f0:	e594901c 	ldr	r9, [r4, #28]
     4f4:	e5943000 	ldr	r3, [r4]
     4f8:	e88d4040 	stm	sp, {r6, lr}
     4fc:	e58dc008 	str	ip, [sp, #8]
     500:	e58d700c 	str	r7, [sp, #12]
     504:	e58d8010 	str	r8, [sp, #16]
     508:	e58da014 	str	sl, [sp, #20]
     50c:	e58d9018 	str	r9, [sp, #24]
     510:	e594c014 	ldr	ip, [r4, #20]
     514:	e59f22e0 	ldr	r2, [pc, #736]	; 7fc <opfunc_hw_rst+0x350>
     518:	e58dc01c 	str	ip, [sp, #28]
     51c:	ebfffffe 	bl	0 <osal_info_print>
     520:	e594200c 	ldr	r2, [r4, #12]
     524:	e3a03000 	mov	r3, #0
     528:	e5843000 	str	r3, [r4]
     52c:	e3520002 	cmp	r2, #2
     530:	e5843004 	str	r3, [r4, #4]
     534:	e5843008 	str	r3, [r4, #8]
     538:	124b6030 	subne	r6, fp, #48	; 0x30
     53c:	e5843020 	str	r3, [r4, #32]
     540:	124b7034 	subne	r7, fp, #52	; 0x34
     544:	e5843014 	str	r3, [r4, #20]
     548:	0a000058 	beq	6b0 <opfunc_hw_rst+0x204>
     54c:	e5943028 	ldr	r3, [r4, #40]	; 0x28
     550:	e3530001 	cmp	r3, #1
     554:	0a000033 	beq	628 <opfunc_hw_rst+0x17c>
     558:	e3a03000 	mov	r3, #0
     55c:	e3a00002 	mov	r0, #2
     560:	e5843010 	str	r3, [r4, #16]
     564:	e1a01006 	mov	r1, r6
     568:	e1a02007 	mov	r2, r7
     56c:	ebfffffe 	bl	3f0 <wmt_core_ctrl>
     570:	e2503000 	subs	r3, r0, #0
     574:	1a000026 	bne	614 <opfunc_hw_rst+0x168>
     578:	e5953000 	ldr	r3, [r5]
     57c:	e3530001 	cmp	r3, #1
     580:	9a000002 	bls	590 <opfunc_hw_rst+0xe4>
     584:	e59f0274 	ldr	r0, [pc, #628]	; 800 <opfunc_hw_rst+0x354>
     588:	e59f1274 	ldr	r1, [pc, #628]	; 804 <opfunc_hw_rst+0x358>
     58c:	ebfffffe 	bl	0 <osal_info_print>
     590:	e1a01006 	mov	r1, r6
     594:	e1a02007 	mov	r2, r7
     598:	e3a00003 	mov	r0, #3
     59c:	e3a03000 	mov	r3, #0
     5a0:	e50b3034 	str	r3, [fp, #-52]	; 0xffffffcc
     5a4:	e50b3030 	str	r3, [fp, #-48]	; 0xffffffd0
     5a8:	ebfffffe 	bl	3f0 <wmt_core_ctrl>
     5ac:	e2506000 	subs	r6, r0, #0
     5b0:	1a00007d 	bne	7ac <opfunc_hw_rst+0x300>
     5b4:	e5953000 	ldr	r3, [r5]
     5b8:	e3530001 	cmp	r3, #1
     5bc:	9a000011 	bls	608 <opfunc_hw_rst+0x15c>
     5c0:	e5949014 	ldr	r9, [r4, #20]
     5c4:	e8944028 	ldm	r4, {r3, r5, lr}
     5c8:	e594c00c 	ldr	ip, [r4, #12]
     5cc:	e5947020 	ldr	r7, [r4, #32]
     5d0:	e5948010 	ldr	r8, [r4, #16]
     5d4:	e594a018 	ldr	sl, [r4, #24]
     5d8:	e594401c 	ldr	r4, [r4, #28]
     5dc:	e59f0210 	ldr	r0, [pc, #528]	; 7f4 <opfunc_hw_rst+0x348>
     5e0:	e59f1210 	ldr	r1, [pc, #528]	; 7f8 <opfunc_hw_rst+0x34c>
     5e4:	e59f221c 	ldr	r2, [pc, #540]	; 808 <opfunc_hw_rst+0x35c>
     5e8:	e88d4020 	stm	sp, {r5, lr}
     5ec:	e58dc008 	str	ip, [sp, #8]
     5f0:	e58d700c 	str	r7, [sp, #12]
     5f4:	e58d8010 	str	r8, [sp, #16]
     5f8:	e58da014 	str	sl, [sp, #20]
     5fc:	e58d4018 	str	r4, [sp, #24]
     600:	e58d901c 	str	r9, [sp, #28]
     604:	ebfffffe 	bl	0 <osal_info_print>
     608:	e1a00006 	mov	r0, r6
     60c:	e24bd028 	sub	sp, fp, #40	; 0x28
     610:	e89daff0 	ldm	sp, {r4, r5, r6, r7, r8, r9, sl, fp, sp, pc}
     614:	e59f11e8 	ldr	r1, [pc, #488]	; 804 <opfunc_hw_rst+0x358>
     618:	e3002754 	movw	r2, #1876	; 0x754
     61c:	e59f01e8 	ldr	r0, [pc, #488]	; 80c <opfunc_hw_rst+0x360>
     620:	ebfffffe 	bl	0 <osal_err_print>
     624:	eaffffd9 	b	590 <opfunc_hw_rst+0xe4>
     628:	e3a0000b 	mov	r0, #11
     62c:	e1a01006 	mov	r1, r6
     630:	e1a02007 	mov	r2, r7
     634:	e3a03000 	mov	r3, #0
     638:	e50b3034 	str	r3, [fp, #-52]	; 0xffffffcc
     63c:	e50b3030 	str	r3, [fp, #-48]	; 0xffffffd0
     640:	ebfffffe 	bl	3f0 <wmt_core_ctrl>
     644:	e2503000 	subs	r3, r0, #0
     648:	1a000031 	bne	714 <opfunc_hw_rst+0x268>
     64c:	e5953000 	ldr	r3, [r5]
     650:	e3530001 	cmp	r3, #1
     654:	9a000002 	bls	664 <opfunc_hw_rst+0x1b8>
     658:	e59f01b0 	ldr	r0, [pc, #432]	; 810 <opfunc_hw_rst+0x364>
     65c:	e59f11a0 	ldr	r1, [pc, #416]	; 804 <opfunc_hw_rst+0x358>
     660:	ebfffffe 	bl	0 <osal_info_print>
     664:	e3a0000a 	mov	r0, #10
     668:	e1a01006 	mov	r1, r6
     66c:	e1a02007 	mov	r2, r7
     670:	e3a03002 	mov	r3, #2
     674:	e50b3030 	str	r3, [fp, #-48]	; 0xffffffd0
     678:	e3a03000 	mov	r3, #0
     67c:	e50b3034 	str	r3, [fp, #-52]	; 0xffffffcc
     680:	ebfffffe 	bl	3f0 <wmt_core_ctrl>
     684:	e2503000 	subs	r3, r0, #0
     688:	1a00003d 	bne	784 <opfunc_hw_rst+0x2d8>
     68c:	e5953000 	ldr	r3, [r5]
     690:	e3530001 	cmp	r3, #1
     694:	9a000002 	bls	6a4 <opfunc_hw_rst+0x1f8>
     698:	e59f0174 	ldr	r0, [pc, #372]	; 814 <opfunc_hw_rst+0x368>
     69c:	e59f1160 	ldr	r1, [pc, #352]	; 804 <opfunc_hw_rst+0x358>
     6a0:	ebfffffe 	bl	0 <osal_info_print>
     6a4:	e3a03000 	mov	r3, #0
     6a8:	e584301c 	str	r3, [r4, #28]
     6ac:	eaffffa9 	b	558 <opfunc_hw_rst+0xac>
     6b0:	e24b6030 	sub	r6, fp, #48	; 0x30
     6b4:	e24b7034 	sub	r7, fp, #52	; 0x34
     6b8:	e3a0000b 	mov	r0, #11
     6bc:	e1a01006 	mov	r1, r6
     6c0:	e1a02007 	mov	r2, r7
     6c4:	e50b3034 	str	r3, [fp, #-52]	; 0xffffffcc
     6c8:	e3a03001 	mov	r3, #1
     6cc:	e50b3030 	str	r3, [fp, #-48]	; 0xffffffd0
     6d0:	ebfffffe 	bl	3f0 <wmt_core_ctrl>
     6d4:	e2503000 	subs	r3, r0, #0
     6d8:	1a000024 	bne	770 <opfunc_hw_rst+0x2c4>
     6dc:	e5953000 	ldr	r3, [r5]
     6e0:	e3530001 	cmp	r3, #1
     6e4:	9a000002 	bls	6f4 <opfunc_hw_rst+0x248>
     6e8:	e59f0128 	ldr	r0, [pc, #296]	; 818 <opfunc_hw_rst+0x36c>
     6ec:	e59f1110 	ldr	r1, [pc, #272]	; 804 <opfunc_hw_rst+0x358>
     6f0:	ebfffffe 	bl	0 <osal_info_print>
     6f4:	e5943028 	ldr	r3, [r4, #40]	; 0x28
     6f8:	e3a02000 	mov	r2, #0
     6fc:	e584200c 	str	r2, [r4, #12]
     700:	e1530002 	cmp	r3, r2
     704:	0a000007 	beq	728 <opfunc_hw_rst+0x27c>
     708:	e3a03000 	mov	r3, #0
     70c:	e584300c 	str	r3, [r4, #12]
     710:	eaffff8d 	b	54c <opfunc_hw_rst+0xa0>
     714:	e59f10e8 	ldr	r1, [pc, #232]	; 804 <opfunc_hw_rst+0x358>
     718:	e300272f 	movw	r2, #1839	; 0x72f
     71c:	e59f00f8 	ldr	r0, [pc, #248]	; 81c <opfunc_hw_rst+0x370>
     720:	ebfffffe 	bl	0 <osal_err_print>
     724:	eaffffce 	b	664 <opfunc_hw_rst+0x1b8>
     728:	e3a0000a 	mov	r0, #10
     72c:	e1a01006 	mov	r1, r6
     730:	e1a02007 	mov	r2, r7
     734:	e50b3034 	str	r3, [fp, #-52]	; 0xffffffcc
     738:	e3a03001 	mov	r3, #1
     73c:	e50b3030 	str	r3, [fp, #-48]	; 0xffffffd0
     740:	ebfffffe 	bl	3f0 <wmt_core_ctrl>
     744:	e2503000 	subs	r3, r0, #0
     748:	1a00001d 	bne	7c4 <opfunc_hw_rst+0x318>
     74c:	e5953000 	ldr	r3, [r5]
     750:	e3530001 	cmp	r3, #1
     754:	9a000002 	bls	764 <opfunc_hw_rst+0x2b8>
     758:	e59f00c0 	ldr	r0, [pc, #192]	; 820 <opfunc_hw_rst+0x374>
     75c:	e59f10a0 	ldr	r1, [pc, #160]	; 804 <opfunc_hw_rst+0x358>
     760:	ebfffffe 	bl	0 <osal_info_print>
     764:	e3a03000 	mov	r3, #0
     768:	e5843018 	str	r3, [r4, #24]
     76c:	eaffffe5 	b	708 <opfunc_hw_rst+0x25c>
     770:	e59f108c 	ldr	r1, [pc, #140]	; 804 <opfunc_hw_rst+0x358>
     774:	e3a02e71 	mov	r2, #1808	; 0x710
     778:	e59f00a4 	ldr	r0, [pc, #164]	; 824 <opfunc_hw_rst+0x378>
     77c:	ebfffffe 	bl	0 <osal_err_print>
     780:	eaffffdb 	b	6f4 <opfunc_hw_rst+0x248>
     784:	e59f1078 	ldr	r1, [pc, #120]	; 804 <opfunc_hw_rst+0x358>
     788:	e300273b 	movw	r2, #1851	; 0x73b
     78c:	e59f0094 	ldr	r0, [pc, #148]	; 828 <opfunc_hw_rst+0x37c>
     790:	ebfffffe 	bl	0 <osal_err_print>
     794:	e59f1090 	ldr	r1, [pc, #144]	; 82c <opfunc_hw_rst+0x380>
     798:	e300273c 	movw	r2, #1852	; 0x73c
     79c:	e59f308c 	ldr	r3, [pc, #140]	; 830 <opfunc_hw_rst+0x384>
     7a0:	e59f008c 	ldr	r0, [pc, #140]	; 834 <opfunc_hw_rst+0x388>
     7a4:	ebfffffe 	bl	0 <osal_err_print>
     7a8:	eaffffbd 	b	6a4 <opfunc_hw_rst+0x1f8>
     7ac:	e300275d 	movw	r2, #1885	; 0x75d
     7b0:	e59f104c 	ldr	r1, [pc, #76]	; 804 <opfunc_hw_rst+0x358>
     7b4:	e59f007c 	ldr	r0, [pc, #124]	; 838 <opfunc_hw_rst+0x38c>
     7b8:	e3e06000 	mvn	r6, #0
     7bc:	ebfffffe 	bl	0 <osal_err_print>
     7c0:	eaffff90 	b	608 <opfunc_hw_rst+0x15c>
     7c4:	e59f1038 	ldr	r1, [pc, #56]	; 804 <opfunc_hw_rst+0x358>
     7c8:	e300271e 	movw	r2, #1822	; 0x71e
     7cc:	e59f0068 	ldr	r0, [pc, #104]	; 83c <opfunc_hw_rst+0x390>
     7d0:	ebfffffe 	bl	0 <osal_err_print>
     7d4:	e59f1050 	ldr	r1, [pc, #80]	; 82c <opfunc_hw_rst+0x380>
     7d8:	e300271f 	movw	r2, #1823	; 0x71f
     7dc:	e59f304c 	ldr	r3, [pc, #76]	; 830 <opfunc_hw_rst+0x384>
     7e0:	e59f004c 	ldr	r0, [pc, #76]	; 834 <opfunc_hw_rst+0x388>
     7e4:	ebfffffe 	bl	0 <osal_err_print>
     7e8:	eaffffdd 	b	764 <opfunc_hw_rst+0x2b8>
	...
     7f4:	000002b0 			; <UNDEFINED> instruction: 0x000002b0
     7f8:	000000d4 	ldrdeq	r0, [r0], -r4
     7fc:	00000304 	andeq	r0, r0, r4, lsl #6
     800:	000004b0 			; <UNDEFINED> instruction: 0x000004b0
     804:	000000f0 	strdeq	r0, [r0], -r0	; <UNPREDICTABLE>
     808:	000004ec 	andeq	r0, r0, ip, ror #9
     80c:	00000488 	andeq	r0, r0, r8, lsl #9
     810:	00000400 	andeq	r0, r0, r0, lsl #8
     814:	00000460 	andeq	r0, r0, r0, ror #8
     818:	00000344 	andeq	r0, r0, r4, asr #6
     81c:	000003c8 	andeq	r0, r0, r8, asr #7
     820:	000003a0 	andeq	r0, r0, r0, lsr #7
     824:	00000310 	andeq	r0, r0, r0, lsl r3
     828:	00000430 	andeq	r0, r0, r0, lsr r4
     82c:	0000027c 	andeq	r0, r0, ip, ror r2
     830:	000002ac 	andeq	r0, r0, ip, lsr #5
     834:	0000026c 	andeq	r0, r0, ip, ror #4
     838:	000004c8 	andeq	r0, r0, r8, asr #9
     83c:	00000370 	andeq	r0, r0, r0, ror r3

00000840 <wmt_core_rx_flush>:
     840:	e1a0c00d 	mov	ip, sp
     844:	e92dd810 	push	{r4, fp, ip, lr, pc}
     848:	e24cb004 	sub	fp, ip, #4
     84c:	e24dd04c 	sub	sp, sp, #76	; 0x4c
     850:	e50b0054 	str	r0, [fp, #-84]	; 0xffffffac
     854:	e24b0058 	sub	r0, fp, #88	; 0x58
     858:	e3a03012 	mov	r3, #18
     85c:	e50b3058 	str	r3, [fp, #-88]	; 0xffffffa8
     860:	ebfffffe 	bl	0 <wmt_ctrl>
     864:	e2504000 	subs	r4, r0, #0
     868:	0a000009 	beq	894 <wmt_core_rx_flush+0x54>
     86c:	e59f102c 	ldr	r1, [pc, #44]	; 8a0 <wmt_core_rx_flush+0x60>
     870:	e30021a3 	movw	r2, #419	; 0x1a3
     874:	e1a03004 	mov	r3, r4
     878:	e59f0024 	ldr	r0, [pc, #36]	; 8a4 <wmt_core_rx_flush+0x64>
     87c:	ebfffffe 	bl	0 <osal_err_print>
     880:	e59f0020 	ldr	r0, [pc, #32]	; 8a8 <wmt_core_rx_flush+0x68>
     884:	e59f1020 	ldr	r1, [pc, #32]	; 8ac <wmt_core_rx_flush+0x6c>
     888:	e3a02f69 	mov	r2, #420	; 0x1a4
     88c:	e59f301c 	ldr	r3, [pc, #28]	; 8b0 <wmt_core_rx_flush+0x70>
     890:	ebfffffe 	bl	0 <osal_err_print>
     894:	e1a00004 	mov	r0, r4
     898:	e24bd010 	sub	sp, fp, #16
     89c:	e89da810 	ldm	sp, {r4, fp, sp, pc}
     8a0:	00000100 	andeq	r0, r0, r0, lsl #2
     8a4:	000004f8 	strdeq	r0, [r0], -r8
     8a8:	0000026c 	andeq	r0, r0, ip, ror #4
     8ac:	0000027c 	andeq	r0, r0, ip, ror r2
     8b0:	000002ac 	andeq	r0, r0, ip, lsr #5

000008b4 <wmt_core_rx>:
     8b4:	e1a0c00d 	mov	ip, sp
     8b8:	e92dd810 	push	{r4, fp, ip, lr, pc}
     8bc:	e24cb004 	sub	fp, ip, #4
     8c0:	e24dd04c 	sub	sp, sp, #76	; 0x4c
     8c4:	e50b0054 	str	r0, [fp, #-84]	; 0xffffffac
     8c8:	e24b0058 	sub	r0, fp, #88	; 0x58
     8cc:	e3a03011 	mov	r3, #17
     8d0:	e50b1050 	str	r1, [fp, #-80]	; 0xffffffb0
     8d4:	e50b204c 	str	r2, [fp, #-76]	; 0xffffffb4
     8d8:	e50b3058 	str	r3, [fp, #-88]	; 0xffffffa8
     8dc:	ebfffffe 	bl	0 <wmt_ctrl>
     8e0:	e2504000 	subs	r4, r0, #0
     8e4:	0a00000a 	beq	914 <wmt_core_rx+0x60>
     8e8:	e59f1030 	ldr	r1, [pc, #48]	; 920 <wmt_core_rx+0x6c>
     8ec:	e3002192 	movw	r2, #402	; 0x192
     8f0:	e1a03004 	mov	r3, r4
     8f4:	e59f0028 	ldr	r0, [pc, #40]	; 924 <wmt_core_rx+0x70>
     8f8:	ebfffffe 	bl	0 <osal_err_print>
     8fc:	ebfffffe 	bl	0 <mtk_wcn_stp_dbg_dump_package>
     900:	e59f0020 	ldr	r0, [pc, #32]	; 928 <wmt_core_rx+0x74>
     904:	e59f1020 	ldr	r1, [pc, #32]	; 92c <wmt_core_rx+0x78>
     908:	e3a02f65 	mov	r2, #404	; 0x194
     90c:	e59f301c 	ldr	r3, [pc, #28]	; 930 <wmt_core_rx+0x7c>
     910:	ebfffffe 	bl	0 <osal_err_print>
     914:	e1a00004 	mov	r0, r4
     918:	e24bd010 	sub	sp, fp, #16
     91c:	e89da810 	ldm	sp, {r4, fp, sp, pc}
     920:	00000114 	andeq	r0, r0, r4, lsl r1
     924:	00000538 	andeq	r0, r0, r8, lsr r5
     928:	0000026c 	andeq	r0, r0, ip, ror #4
     92c:	0000027c 	andeq	r0, r0, ip, ror r2
     930:	000002ac 	andeq	r0, r0, ip, lsr #5

00000934 <opfunc_sdio_ctrl>:
     934:	e1a0c00d 	mov	ip, sp
     938:	e92dd810 	push	{r4, fp, ip, lr, pc}
     93c:	e24cb004 	sub	fp, ip, #4
     940:	e24dd00c 	sub	sp, sp, #12
     944:	e59f409c 	ldr	r4, [pc, #156]	; 9e8 <opfunc_sdio_ctrl+0xb4>
     948:	e24b201c 	sub	r2, fp, #28
     94c:	e24b1018 	sub	r1, fp, #24
     950:	e5943028 	ldr	r3, [r4, #40]	; 0x28
     954:	e3530001 	cmp	r3, #1
     958:	03a03002 	moveq	r3, #2
     95c:	13a03001 	movne	r3, #1
     960:	e50b3018 	str	r3, [fp, #-24]	; 0xffffffe8
     964:	e5903008 	ldr	r3, [r0, #8]
     968:	e3a0000a 	mov	r0, #10
     96c:	e50b301c 	str	r3, [fp, #-28]	; 0xffffffe4
     970:	ebfffffe 	bl	3f0 <wmt_core_ctrl>
     974:	e2502000 	subs	r2, r0, #0
     978:	0a000009 	beq	9a4 <opfunc_sdio_ctrl+0x70>
     97c:	e59f3068 	ldr	r3, [pc, #104]	; 9ec <opfunc_sdio_ctrl+0xb8>
     980:	e5933000 	ldr	r3, [r3]
     984:	e3530000 	cmp	r3, #0
     988:	1a000012 	bne	9d8 <opfunc_sdio_ctrl+0xa4>
     98c:	e51b3018 	ldr	r3, [fp, #-24]	; 0xffffffe8
     990:	e3a02000 	mov	r2, #0
     994:	e7842103 	str	r2, [r4, r3, lsl #2]
     998:	e3a00000 	mov	r0, #0
     99c:	e24bd010 	sub	sp, fp, #16
     9a0:	e89da810 	ldm	sp, {r4, fp, sp, pc}
     9a4:	e59f3040 	ldr	r3, [pc, #64]	; 9ec <opfunc_sdio_ctrl+0xb8>
     9a8:	e5933000 	ldr	r3, [r3]
     9ac:	e3530001 	cmp	r3, #1
     9b0:	9a000002 	bls	9c0 <opfunc_sdio_ctrl+0x8c>
     9b4:	e59f0034 	ldr	r0, [pc, #52]	; 9f0 <opfunc_sdio_ctrl+0xbc>
     9b8:	e59f1034 	ldr	r1, [pc, #52]	; 9f4 <opfunc_sdio_ctrl+0xc0>
     9bc:	ebfffffe 	bl	0 <osal_info_print>
     9c0:	e51b3018 	ldr	r3, [fp, #-24]	; 0xffffffe8
     9c4:	e51b201c 	ldr	r2, [fp, #-28]	; 0xffffffe4
     9c8:	e2522000 	subs	r2, r2, #0
     9cc:	13a02001 	movne	r2, #1
     9d0:	e7842103 	str	r2, [r4, r3, lsl #2]
     9d4:	eaffffef 	b	998 <opfunc_sdio_ctrl+0x64>
     9d8:	e59f1014 	ldr	r1, [pc, #20]	; 9f4 <opfunc_sdio_ctrl+0xc0>
     9dc:	e59f0014 	ldr	r0, [pc, #20]	; 9f8 <opfunc_sdio_ctrl+0xc4>
     9e0:	ebfffffe 	bl	0 <osal_warn_print>
     9e4:	eaffffe8 	b	98c <opfunc_sdio_ctrl+0x58>
	...
     9f0:	00000598 	muleq	r0, r8, r5
     9f4:	00000120 	andeq	r0, r0, r0, lsr #2
     9f8:	00000570 	andeq	r0, r0, r0, ror r5

000009fc <opfunc_exit>:
     9fc:	e1a0c00d 	mov	ip, sp
     a00:	e92dd800 	push	{fp, ip, lr, pc}
     a04:	e24cb004 	sub	fp, ip, #4
     a08:	e59f301c 	ldr	r3, [pc, #28]	; a2c <opfunc_exit+0x30>
     a0c:	e5933000 	ldr	r3, [r3]
     a10:	e3530000 	cmp	r3, #0
     a14:	0a000002 	beq	a24 <opfunc_exit+0x28>
     a18:	e59f0010 	ldr	r0, [pc, #16]	; a30 <opfunc_exit+0x34>
     a1c:	e59f1010 	ldr	r1, [pc, #16]	; a34 <opfunc_exit+0x38>
     a20:	ebfffffe 	bl	0 <osal_warn_print>
     a24:	e3a00000 	mov	r0, #0
     a28:	e89da800 	ldm	sp, {fp, sp, pc}
     a2c:	00000000 	andeq	r0, r0, r0
     a30:	000005c0 	andeq	r0, r0, r0, asr #11
     a34:	00000134 	andeq	r0, r0, r4, lsr r1

00000a38 <wmt_core_stp_deinit>:
     a38:	e1a0c00d 	mov	ip, sp
     a3c:	e92ddff0 	push	{r4, r5, r6, r7, r8, r9, sl, fp, ip, lr, pc}
     a40:	e24cb004 	sub	fp, ip, #4
     a44:	e24dd00c 	sub	sp, sp, #12
     a48:	e59f81f0 	ldr	r8, [pc, #496]	; c40 <wmt_core_stp_deinit+0x208>
     a4c:	e5983000 	ldr	r3, [r8]
     a50:	e3530002 	cmp	r3, #2
     a54:	8a000034 	bhi	b2c <wmt_core_stp_deinit+0xf4>
     a58:	e59f51e4 	ldr	r5, [pc, #484]	; c44 <wmt_core_stp_deinit+0x20c>
     a5c:	e5953050 	ldr	r3, [r5, #80]	; 0x50
     a60:	e3530000 	cmp	r3, #0
     a64:	0a000037 	beq	b48 <wmt_core_stp_deinit+0x110>
     a68:	e5933008 	ldr	r3, [r3, #8]
     a6c:	e3530000 	cmp	r3, #0
     a70:	0a000056 	beq	bd0 <wmt_core_stp_deinit+0x198>
     a74:	e2850028 	add	r0, r5, #40	; 0x28
     a78:	e12fff33 	blx	r3
     a7c:	e3a03000 	mov	r3, #0
     a80:	e5853050 	str	r3, [r5, #80]	; 0x50
     a84:	e24b7030 	sub	r7, fp, #48	; 0x30
     a88:	e24b6034 	sub	r6, fp, #52	; 0x34
     a8c:	e1a01007 	mov	r1, r7
     a90:	e1a02006 	mov	r2, r6
     a94:	e3a00005 	mov	r0, #5
     a98:	e3a04000 	mov	r4, #0
     a9c:	e3a03001 	mov	r3, #1
     aa0:	e50b4034 	str	r4, [fp, #-52]	; 0xffffffcc
     aa4:	e50b3030 	str	r3, [fp, #-48]	; 0xffffffd0
     aa8:	ebfffffe 	bl	3f0 <wmt_core_ctrl>
     aac:	e1a01007 	mov	r1, r7
     ab0:	e1a02006 	mov	r2, r6
     ab4:	e50b4030 	str	r4, [fp, #-48]	; 0xffffffd0
     ab8:	e50b4034 	str	r4, [fp, #-52]	; 0xffffffcc
     abc:	e1a09000 	mov	r9, r0
     ac0:	e3a00005 	mov	r0, #5
     ac4:	ebfffffe 	bl	3f0 <wmt_core_ctrl>
     ac8:	e1a01007 	mov	r1, r7
     acc:	e1a02006 	mov	r2, r6
     ad0:	e50b4030 	str	r4, [fp, #-48]	; 0xffffffd0
     ad4:	e50b4034 	str	r4, [fp, #-52]	; 0xffffffcc
     ad8:	e1a0a000 	mov	sl, r0
     adc:	e3a00003 	mov	r0, #3
     ae0:	ebfffffe 	bl	3f0 <wmt_core_ctrl>
     ae4:	e5953028 	ldr	r3, [r5, #40]	; 0x28
     ae8:	e3530001 	cmp	r3, #1
     aec:	108aa009 	addne	sl, sl, r9
     af0:	108aa000 	addne	sl, sl, r0
     af4:	0a00001a 	beq	b64 <wmt_core_stp_deinit+0x12c>
     af8:	e35a0000 	cmp	sl, #0
     afc:	0a000002 	beq	b0c <wmt_core_stp_deinit+0xd4>
     b00:	e5983000 	ldr	r3, [r8]
     b04:	e3530000 	cmp	r3, #0
     b08:	1a000002 	bne	b18 <wmt_core_stp_deinit+0xe0>
     b0c:	e1a0000a 	mov	r0, sl
     b10:	e24bd028 	sub	sp, fp, #40	; 0x28
     b14:	e89daff0 	ldm	sp, {r4, r5, r6, r7, r8, r9, sl, fp, sp, pc}
     b18:	e1a0200a 	mov	r2, sl
     b1c:	e59f1124 	ldr	r1, [pc, #292]	; c48 <wmt_core_stp_deinit+0x210>
     b20:	e59f0124 	ldr	r0, [pc, #292]	; c4c <wmt_core_stp_deinit+0x214>
     b24:	ebfffffe 	bl	0 <osal_warn_print>
     b28:	eafffff7 	b	b0c <wmt_core_stp_deinit+0xd4>
     b2c:	e59f5110 	ldr	r5, [pc, #272]	; c44 <wmt_core_stp_deinit+0x20c>
     b30:	e59f0118 	ldr	r0, [pc, #280]	; c50 <wmt_core_stp_deinit+0x218>
     b34:	e59f110c 	ldr	r1, [pc, #268]	; c48 <wmt_core_stp_deinit+0x210>
     b38:	ebfffffe 	bl	0 <osal_dbg_print>
     b3c:	e5953050 	ldr	r3, [r5, #80]	; 0x50
     b40:	e3530000 	cmp	r3, #0
     b44:	1affffc7 	bne	a68 <wmt_core_stp_deinit+0x30>
     b48:	e5983000 	ldr	r3, [r8]
     b4c:	e3530000 	cmp	r3, #0
     b50:	0affffcb 	beq	a84 <wmt_core_stp_deinit+0x4c>
     b54:	e59f10ec 	ldr	r1, [pc, #236]	; c48 <wmt_core_stp_deinit+0x210>
     b58:	e59f00f4 	ldr	r0, [pc, #244]	; c54 <wmt_core_stp_deinit+0x21c>
     b5c:	ebfffffe 	bl	0 <osal_warn_print>
     b60:	eaffffc7 	b	a84 <wmt_core_stp_deinit+0x4c>
     b64:	e1a02006 	mov	r2, r6
     b68:	e3a0000b 	mov	r0, #11
     b6c:	e1a01007 	mov	r1, r7
     b70:	e50b4034 	str	r4, [fp, #-52]	; 0xffffffcc
     b74:	e50b4030 	str	r4, [fp, #-48]	; 0xffffffd0
     b78:	ebfffffe 	bl	3f0 <wmt_core_ctrl>
     b7c:	e2502000 	subs	r2, r0, #0
     b80:	0a00001e 	beq	c00 <wmt_core_stp_deinit+0x1c8>
     b84:	e5983000 	ldr	r3, [r8]
     b88:	e3530000 	cmp	r3, #0
     b8c:	1a000027 	bne	c30 <wmt_core_stp_deinit+0x1f8>
     b90:	e1a01007 	mov	r1, r7
     b94:	e1a02006 	mov	r2, r6
     b98:	e3a0000a 	mov	r0, #10
     b9c:	e3a03002 	mov	r3, #2
     ba0:	e50b3030 	str	r3, [fp, #-48]	; 0xffffffd0
     ba4:	e3a03000 	mov	r3, #0
     ba8:	e50b3034 	str	r3, [fp, #-52]	; 0xffffffcc
     bac:	ebfffffe 	bl	3f0 <wmt_core_ctrl>
     bb0:	e250a000 	subs	sl, r0, #0
     bb4:	0a00000a 	beq	be4 <wmt_core_stp_deinit+0x1ac>
     bb8:	e5983000 	ldr	r3, [r8]
     bbc:	e3530000 	cmp	r3, #0
     bc0:	1a000015 	bne	c1c <wmt_core_stp_deinit+0x1e4>
     bc4:	e3a03000 	mov	r3, #0
     bc8:	e585301c 	str	r3, [r5, #28]
     bcc:	eaffffc9 	b	af8 <wmt_core_stp_deinit+0xc0>
     bd0:	e3a02fd6 	mov	r2, #856	; 0x358
     bd4:	e59f106c 	ldr	r1, [pc, #108]	; c48 <wmt_core_stp_deinit+0x210>
     bd8:	e59f0078 	ldr	r0, [pc, #120]	; c58 <wmt_core_stp_deinit+0x220>
     bdc:	ebfffffe 	bl	0 <osal_err_print>
     be0:	eaffffa7 	b	a84 <wmt_core_stp_deinit+0x4c>
     be4:	e5983000 	ldr	r3, [r8]
     be8:	e3530001 	cmp	r3, #1
     bec:	9afffff4 	bls	bc4 <wmt_core_stp_deinit+0x18c>
     bf0:	e59f1050 	ldr	r1, [pc, #80]	; c48 <wmt_core_stp_deinit+0x210>
     bf4:	e59f0060 	ldr	r0, [pc, #96]	; c5c <wmt_core_stp_deinit+0x224>
     bf8:	ebfffffe 	bl	0 <osal_info_print>
     bfc:	eafffff0 	b	bc4 <wmt_core_stp_deinit+0x18c>
     c00:	e5983000 	ldr	r3, [r8]
     c04:	e3530001 	cmp	r3, #1
     c08:	9affffe0 	bls	b90 <wmt_core_stp_deinit+0x158>
     c0c:	e59f1034 	ldr	r1, [pc, #52]	; c48 <wmt_core_stp_deinit+0x210>
     c10:	e59f0048 	ldr	r0, [pc, #72]	; c60 <wmt_core_stp_deinit+0x228>
     c14:	ebfffffe 	bl	0 <osal_info_print>
     c18:	eaffffdc 	b	b90 <wmt_core_stp_deinit+0x158>
     c1c:	e59f1024 	ldr	r1, [pc, #36]	; c48 <wmt_core_stp_deinit+0x210>
     c20:	e1a0200a 	mov	r2, sl
     c24:	e59f0038 	ldr	r0, [pc, #56]	; c64 <wmt_core_stp_deinit+0x22c>
     c28:	ebfffffe 	bl	0 <osal_warn_print>
     c2c:	eaffffe4 	b	bc4 <wmt_core_stp_deinit+0x18c>
     c30:	e59f1010 	ldr	r1, [pc, #16]	; c48 <wmt_core_stp_deinit+0x210>
     c34:	e59f002c 	ldr	r0, [pc, #44]	; c68 <wmt_core_stp_deinit+0x230>
     c38:	ebfffffe 	bl	0 <osal_warn_print>
     c3c:	eaffffd3 	b	b90 <wmt_core_stp_deinit+0x158>
	...
     c48:	00000140 	andeq	r0, r0, r0, asr #2
     c4c:	00000708 	andeq	r0, r0, r8, lsl #14
     c50:	000005e0 	andeq	r0, r0, r0, ror #11
     c54:	000005f8 	strdeq	r0, [r0], -r8
     c58:	00000624 	andeq	r0, r0, r4, lsr #12
     c5c:	000006e4 	andeq	r0, r0, r4, ror #13
     c60:	0000068c 	andeq	r0, r0, ip, lsl #13
     c64:	000006b8 			; <UNDEFINED> instruction: 0x000006b8
     c68:	0000065c 	andeq	r0, r0, ip, asr r6

00000c6c <opfunc_pwr_off>:
     c6c:	e1a0c00d 	mov	ip, sp
     c70:	e92dd870 	push	{r4, r5, r6, fp, ip, lr, pc}
     c74:	e24cb004 	sub	fp, ip, #4
     c78:	e24dd00c 	sub	sp, sp, #12
     c7c:	e59f50f4 	ldr	r5, [pc, #244]	; d78 <opfunc_pwr_off+0x10c>
     c80:	e5952010 	ldr	r2, [r5, #16]
     c84:	e3520000 	cmp	r2, #0
     c88:	0a00002c 	beq	d40 <opfunc_pwr_off+0xd4>
     c8c:	e3520002 	cmp	r2, #2
     c90:	0a00001b 	beq	d04 <opfunc_pwr_off+0x98>
     c94:	e59f60e0 	ldr	r6, [pc, #224]	; d7c <opfunc_pwr_off+0x110>
     c98:	e3a03000 	mov	r3, #0
     c9c:	e24b1020 	sub	r1, fp, #32
     ca0:	e1a00003 	mov	r0, r3
     ca4:	e24b2024 	sub	r2, fp, #36	; 0x24
     ca8:	e3a0c001 	mov	ip, #1
     cac:	e50b3020 	str	r3, [fp, #-32]	; 0xffffffe0
     cb0:	e585c010 	str	ip, [r5, #16]
     cb4:	e50b3024 	str	r3, [fp, #-36]	; 0xffffffdc
     cb8:	ebfffffe 	bl	3f0 <wmt_core_ctrl>
     cbc:	e2504000 	subs	r4, r0, #0
     cc0:	1a000007 	bne	ce4 <opfunc_pwr_off+0x78>
     cc4:	e5963000 	ldr	r3, [r6]
     cc8:	e3530000 	cmp	r3, #0
     ccc:	1a000017 	bne	d30 <opfunc_pwr_off+0xc4>
     cd0:	e3a03000 	mov	r3, #0
     cd4:	e5853010 	str	r3, [r5, #16]
     cd8:	e1a00004 	mov	r0, r4
     cdc:	e24bd018 	sub	sp, fp, #24
     ce0:	e89da870 	ldm	sp, {r4, r5, r6, fp, sp, pc}
     ce4:	e5963000 	ldr	r3, [r6]
     ce8:	e3530000 	cmp	r3, #0
     cec:	0afffff7 	beq	cd0 <opfunc_pwr_off+0x64>
     cf0:	e59f1088 	ldr	r1, [pc, #136]	; d80 <opfunc_pwr_off+0x114>
     cf4:	e1a02004 	mov	r2, r4
     cf8:	e59f0084 	ldr	r0, [pc, #132]	; d84 <opfunc_pwr_off+0x118>
     cfc:	ebfffffe 	bl	0 <osal_warn_print>
     d00:	eafffff2 	b	cd0 <opfunc_pwr_off+0x64>
     d04:	ebffff4b 	bl	a38 <wmt_core_stp_deinit>
     d08:	e2502000 	subs	r2, r0, #0
     d0c:	0affffe0 	beq	c94 <opfunc_pwr_off+0x28>
     d10:	e59f6064 	ldr	r6, [pc, #100]	; d7c <opfunc_pwr_off+0x110>
     d14:	e5963000 	ldr	r3, [r6]
     d18:	e3530000 	cmp	r3, #0
     d1c:	0affffdd 	beq	c98 <opfunc_pwr_off+0x2c>
     d20:	e59f1058 	ldr	r1, [pc, #88]	; d80 <opfunc_pwr_off+0x114>
     d24:	e59f005c 	ldr	r0, [pc, #92]	; d88 <opfunc_pwr_off+0x11c>
     d28:	ebfffffe 	bl	0 <osal_warn_print>
     d2c:	eaffffd9 	b	c98 <opfunc_pwr_off+0x2c>
     d30:	e59f1048 	ldr	r1, [pc, #72]	; d80 <opfunc_pwr_off+0x114>
     d34:	e59f0050 	ldr	r0, [pc, #80]	; d8c <opfunc_pwr_off+0x120>
     d38:	ebfffffe 	bl	0 <osal_warn_print>
     d3c:	eaffffe3 	b	cd0 <opfunc_pwr_off+0x64>
     d40:	e59f3034 	ldr	r3, [pc, #52]	; d7c <opfunc_pwr_off+0x110>
     d44:	e5933000 	ldr	r3, [r3]
     d48:	e3530000 	cmp	r3, #0
     d4c:	0a000002 	beq	d5c <opfunc_pwr_off+0xf0>
     d50:	e59f0038 	ldr	r0, [pc, #56]	; d90 <opfunc_pwr_off+0x124>
     d54:	e59f1024 	ldr	r1, [pc, #36]	; d80 <opfunc_pwr_off+0x114>
     d58:	ebfffffe 	bl	0 <osal_warn_print>
     d5c:	e3002449 	movw	r2, #1097	; 0x449
     d60:	e59f102c 	ldr	r1, [pc, #44]	; d94 <opfunc_pwr_off+0x128>
     d64:	e59f302c 	ldr	r3, [pc, #44]	; d98 <opfunc_pwr_off+0x12c>
     d68:	e3e04000 	mvn	r4, #0
     d6c:	e59f0028 	ldr	r0, [pc, #40]	; d9c <opfunc_pwr_off+0x130>
     d70:	ebfffffe 	bl	0 <osal_err_print>
     d74:	eaffffd7 	b	cd8 <opfunc_pwr_off+0x6c>
	...
     d80:	00000154 	andeq	r0, r0, r4, asr r1
     d84:	00000788 	andeq	r0, r0, r8, lsl #15
     d88:	0000075c 	andeq	r0, r0, ip, asr r7
     d8c:	000007ac 	andeq	r0, r0, ip, lsr #15
     d90:	00000728 	andeq	r0, r0, r8, lsr #14
     d94:	0000027c 	andeq	r0, r0, ip, ror r2
     d98:	000002ac 	andeq	r0, r0, ip, lsr #5
     d9c:	0000026c 	andeq	r0, r0, ip, ror #4

00000da0 <opfunc_func_off>:
     da0:	e1a0c00d 	mov	ip, sp
     da4:	e92ddff0 	push	{r4, r5, r6, r7, r8, r9, sl, fp, ip, lr, pc}
     da8:	e24cb004 	sub	fp, ip, #4
     dac:	e24dd02c 	sub	sp, sp, #44	; 0x2c
     db0:	e5904008 	ldr	r4, [r0, #8]
     db4:	e1a07000 	mov	r7, r0
     db8:	e3540008 	cmp	r4, #8
     dbc:	8a000093 	bhi	1010 <opfunc_func_off+0x270>
     dc0:	e59f52d4 	ldr	r5, [pc, #724]	; 109c <opfunc_func_off+0x2fc>
     dc4:	e795c104 	ldr	ip, [r5, r4, lsl #2]
     dc8:	e35c0002 	cmp	ip, #2
     dcc:	8a00009b 	bhi	1040 <opfunc_func_off+0x2a0>
     dd0:	0a00000d 	beq	e0c <opfunc_func_off+0x6c>
     dd4:	e59f32c4 	ldr	r3, [pc, #708]	; 10a0 <opfunc_func_off+0x300>
     dd8:	e5936000 	ldr	r6, [r3]
     ddc:	e3560000 	cmp	r6, #0
     de0:	1a000002 	bne	df0 <opfunc_func_off+0x50>
     de4:	e1a00006 	mov	r0, r6
     de8:	e24bd028 	sub	sp, fp, #40	; 0x28
     dec:	e89daff0 	ldm	sp, {r4, r5, r6, r7, r8, r9, sl, fp, sp, pc}
     df0:	e1a02004 	mov	r2, r4
     df4:	e1a0300c 	mov	r3, ip
     df8:	e59f12a4 	ldr	r1, [pc, #676]	; 10a4 <opfunc_func_off+0x304>
     dfc:	e3a06000 	mov	r6, #0
     e00:	e59f02a0 	ldr	r0, [pc, #672]	; 10a8 <opfunc_func_off+0x308>
     e04:	ebfffffe 	bl	0 <osal_warn_print>
     e08:	eafffff5 	b	de4 <opfunc_func_off+0x44>
     e0c:	e3540003 	cmp	r4, #3
     e10:	8a00004f 	bhi	f54 <opfunc_func_off+0x1b4>
     e14:	e59f3290 	ldr	r3, [pc, #656]	; 10ac <opfunc_func_off+0x30c>
     e18:	e7933104 	ldr	r3, [r3, r4, lsl #2]
     e1c:	e3530000 	cmp	r3, #0
     e20:	0a000051 	beq	f6c <opfunc_func_off+0x1cc>
     e24:	e5936004 	ldr	r6, [r3, #4]
     e28:	e3560000 	cmp	r6, #0
     e2c:	0a00004e 	beq	f6c <opfunc_func_off+0x1cc>
     e30:	e5958050 	ldr	r8, [r5, #80]	; 0x50
     e34:	ebfffffe 	bl	0 <wmt_conf_get_cfg>
     e38:	e1a01000 	mov	r1, r0
     e3c:	e1a00008 	mov	r0, r8
     e40:	e12fff36 	blx	r6
     e44:	e3540003 	cmp	r4, #3
     e48:	e1a06000 	mov	r6, r0
     e4c:	0a000060 	beq	fd4 <opfunc_func_off+0x234>
     e50:	e3560000 	cmp	r6, #0
     e54:	e3a03000 	mov	r3, #0
     e58:	e7853104 	str	r3, [r5, r4, lsl #2]
     e5c:	1a000055 	bne	fb8 <opfunc_func_off+0x218>
     e60:	e59f8238 	ldr	r8, [pc, #568]	; 10a0 <opfunc_func_off+0x300>
     e64:	e5953000 	ldr	r3, [r5]
     e68:	e59f222c 	ldr	r2, [pc, #556]	; 109c <opfunc_func_off+0x2fc>
     e6c:	e3530000 	cmp	r3, #0
     e70:	1a000021 	bne	efc <opfunc_func_off+0x15c>
     e74:	e5923008 	ldr	r3, [r2, #8]
     e78:	e3530000 	cmp	r3, #0
     e7c:	1a00001e 	bne	efc <opfunc_func_off+0x15c>
     e80:	e5923004 	ldr	r3, [r2, #4]
     e84:	e3530000 	cmp	r3, #0
     e88:	1a00001b 	bne	efc <opfunc_func_off+0x15c>
     e8c:	e592300c 	ldr	r3, [r2, #12]
     e90:	e3530000 	cmp	r3, #0
     e94:	1a000018 	bne	efc <opfunc_func_off+0x15c>
     e98:	e5923020 	ldr	r3, [r2, #32]
     e9c:	e3530000 	cmp	r3, #0
     ea0:	1a000015 	bne	efc <opfunc_func_off+0x15c>
     ea4:	e5983000 	ldr	r3, [r8]
     ea8:	e3530001 	cmp	r3, #1
     eac:	9a000003 	bls	ec0 <opfunc_func_off+0x120>
     eb0:	e59f01f8 	ldr	r0, [pc, #504]	; 10b0 <opfunc_func_off+0x310>
     eb4:	e1a02004 	mov	r2, r4
     eb8:	e59f11e4 	ldr	r1, [pc, #484]	; 10a4 <opfunc_func_off+0x304>
     ebc:	ebfffffe 	bl	0 <osal_info_print>
     ec0:	e1a00007 	mov	r0, r7
     ec4:	ebffff68 	bl	c6c <opfunc_pwr_off>
     ec8:	e2506000 	subs	r6, r0, #0
     ecc:	0a00000a 	beq	efc <opfunc_func_off+0x15c>
     ed0:	e59f11cc 	ldr	r1, [pc, #460]	; 10a4 <opfunc_func_off+0x304>
     ed4:	e300254e 	movw	r2, #1358	; 0x54e
     ed8:	e1a03006 	mov	r3, r6
     edc:	e59f01d0 	ldr	r0, [pc, #464]	; 10b4 <opfunc_func_off+0x314>
     ee0:	e58d4000 	str	r4, [sp]
     ee4:	ebfffffe 	bl	0 <osal_err_print>
     ee8:	e59f01c8 	ldr	r0, [pc, #456]	; 10b8 <opfunc_func_off+0x318>
     eec:	e300254f 	movw	r2, #1359	; 0x54f
     ef0:	e59f11c4 	ldr	r1, [pc, #452]	; 10bc <opfunc_func_off+0x31c>
     ef4:	e59f31c4 	ldr	r3, [pc, #452]	; 10c0 <opfunc_func_off+0x320>
     ef8:	ebfffffe 	bl	0 <osal_err_print>
     efc:	e5983000 	ldr	r3, [r8]
     f00:	e3530001 	cmp	r3, #1
     f04:	9affffb6 	bls	de4 <opfunc_func_off+0x44>
     f08:	e5959014 	ldr	r9, [r5, #20]
     f0c:	e8954018 	ldm	r5, {r3, r4, lr}
     f10:	e595c00c 	ldr	ip, [r5, #12]
     f14:	e5957020 	ldr	r7, [r5, #32]
     f18:	e5958010 	ldr	r8, [r5, #16]
     f1c:	e595a018 	ldr	sl, [r5, #24]
     f20:	e595501c 	ldr	r5, [r5, #28]
     f24:	e59f1198 	ldr	r1, [pc, #408]	; 10c4 <opfunc_func_off+0x324>
     f28:	e59f2198 	ldr	r2, [pc, #408]	; 10c8 <opfunc_func_off+0x328>
     f2c:	e59f0198 	ldr	r0, [pc, #408]	; 10cc <opfunc_func_off+0x32c>
     f30:	e88d4010 	stm	sp, {r4, lr}
     f34:	e58dc008 	str	ip, [sp, #8]
     f38:	e58d700c 	str	r7, [sp, #12]
     f3c:	e58d8010 	str	r8, [sp, #16]
     f40:	e58da014 	str	sl, [sp, #20]
     f44:	e58d5018 	str	r5, [sp, #24]
     f48:	e58d901c 	str	r9, [sp, #28]
     f4c:	ebfffffe 	bl	0 <osal_info_print>
     f50:	eaffffa3 	b	de4 <opfunc_func_off+0x44>
     f54:	e3540008 	cmp	r4, #8
     f58:	e3a06000 	mov	r6, #0
     f5c:	03a03000 	moveq	r3, #0
     f60:	05853020 	streq	r3, [r5, #32]
     f64:	e7856104 	str	r6, [r5, r4, lsl #2]
     f68:	eaffffbc 	b	e60 <opfunc_func_off+0xc0>
     f6c:	e59f812c 	ldr	r8, [pc, #300]	; 10a0 <opfunc_func_off+0x300>
     f70:	e5983000 	ldr	r3, [r8]
     f74:	e3530000 	cmp	r3, #0
     f78:	1a000010 	bne	fc0 <opfunc_func_off+0x220>
     f7c:	e3e06002 	mvn	r6, #2
     f80:	e3a03000 	mov	r3, #0
     f84:	e7853104 	str	r3, [r5, r4, lsl #2]
     f88:	e1a03004 	mov	r3, r4
     f8c:	e59f1110 	ldr	r1, [pc, #272]	; 10a4 <opfunc_func_off+0x304>
     f90:	e300253d 	movw	r2, #1341	; 0x53d
     f94:	e59f0134 	ldr	r0, [pc, #308]	; 10d0 <opfunc_func_off+0x330>
     f98:	e58d6000 	str	r6, [sp]
     f9c:	ebfffffe 	bl	0 <osal_err_print>
     fa0:	e300253e 	movw	r2, #1342	; 0x53e
     fa4:	e59f1110 	ldr	r1, [pc, #272]	; 10bc <opfunc_func_off+0x31c>
     fa8:	e59f3110 	ldr	r3, [pc, #272]	; 10c0 <opfunc_func_off+0x320>
     fac:	e59f0104 	ldr	r0, [pc, #260]	; 10b8 <opfunc_func_off+0x318>
     fb0:	ebfffffe 	bl	0 <osal_err_print>
     fb4:	eaffffaa 	b	e64 <opfunc_func_off+0xc4>
     fb8:	e59f80e0 	ldr	r8, [pc, #224]	; 10a0 <opfunc_func_off+0x300>
     fbc:	eafffff1 	b	f88 <opfunc_func_off+0x1e8>
     fc0:	e59f10dc 	ldr	r1, [pc, #220]	; 10a4 <opfunc_func_off+0x304>
     fc4:	e1a02004 	mov	r2, r4
     fc8:	e59f0104 	ldr	r0, [pc, #260]	; 10d4 <opfunc_func_off+0x334>
     fcc:	ebfffffe 	bl	0 <osal_warn_print>
     fd0:	eaffffe9 	b	f7c <opfunc_func_off+0x1dc>
     fd4:	e5953028 	ldr	r3, [r5, #40]	; 0x28
     fd8:	e3530000 	cmp	r3, #0
     fdc:	1affff9b 	bne	e50 <opfunc_func_off+0xb0>
     fe0:	e3a0000a 	mov	r0, #10
     fe4:	e24b1030 	sub	r1, fp, #48	; 0x30
     fe8:	e24b2034 	sub	r2, fp, #52	; 0x34
     fec:	e50b3034 	str	r3, [fp, #-52]	; 0xffffffcc
     ff0:	e3a03001 	mov	r3, #1
     ff4:	e50b3030 	str	r3, [fp, #-48]	; 0xffffffd0
     ff8:	ebfffffe 	bl	3f0 <wmt_core_ctrl>
     ffc:	e2503000 	subs	r3, r0, #0
    1000:	1a00001b 	bne	1074 <opfunc_func_off+0x2d4>
    1004:	e3a03000 	mov	r3, #0
    1008:	e5853018 	str	r3, [r5, #24]
    100c:	eaffff8f 	b	e50 <opfunc_func_off+0xb0>
    1010:	e1a03004 	mov	r3, r4
    1014:	e59f1088 	ldr	r1, [pc, #136]	; 10a4 <opfunc_func_off+0x304>
    1018:	e3002507 	movw	r2, #1287	; 0x507
    101c:	e59f00b4 	ldr	r0, [pc, #180]	; 10d8 <opfunc_func_off+0x338>
    1020:	ebfffffe 	bl	0 <osal_err_print>
    1024:	e59f1090 	ldr	r1, [pc, #144]	; 10bc <opfunc_func_off+0x31c>
    1028:	e3002508 	movw	r2, #1288	; 0x508
    102c:	e59f308c 	ldr	r3, [pc, #140]	; 10c0 <opfunc_func_off+0x320>
    1030:	e59f0080 	ldr	r0, [pc, #128]	; 10b8 <opfunc_func_off+0x318>
    1034:	e3e06000 	mvn	r6, #0
    1038:	ebfffffe 	bl	0 <osal_err_print>
    103c:	eaffff68 	b	de4 <opfunc_func_off+0x44>
    1040:	e1a03004 	mov	r3, r4
    1044:	e59f1058 	ldr	r1, [pc, #88]	; 10a4 <opfunc_func_off+0x304>
    1048:	e3a02e51 	mov	r2, #1296	; 0x510
    104c:	e59f0088 	ldr	r0, [pc, #136]	; 10dc <opfunc_func_off+0x33c>
    1050:	e58dc000 	str	ip, [sp]
    1054:	ebfffffe 	bl	0 <osal_err_print>
    1058:	e3002511 	movw	r2, #1297	; 0x511
    105c:	e59f1058 	ldr	r1, [pc, #88]	; 10bc <opfunc_func_off+0x31c>
    1060:	e59f3058 	ldr	r3, [pc, #88]	; 10c0 <opfunc_func_off+0x320>
    1064:	e3e06001 	mvn	r6, #1
    1068:	e59f0048 	ldr	r0, [pc, #72]	; 10b8 <opfunc_func_off+0x318>
    106c:	ebfffffe 	bl	0 <osal_err_print>
    1070:	eaffff5b 	b	de4 <opfunc_func_off+0x44>
    1074:	e59f1028 	ldr	r1, [pc, #40]	; 10a4 <opfunc_func_off+0x304>
    1078:	e3002526 	movw	r2, #1318	; 0x526
    107c:	e59f005c 	ldr	r0, [pc, #92]	; 10e0 <opfunc_func_off+0x340>
    1080:	ebfffffe 	bl	0 <osal_err_print>
    1084:	e59f1030 	ldr	r1, [pc, #48]	; 10bc <opfunc_func_off+0x31c>
    1088:	e3002527 	movw	r2, #1319	; 0x527
    108c:	e59f302c 	ldr	r3, [pc, #44]	; 10c0 <opfunc_func_off+0x320>
    1090:	e59f0020 	ldr	r0, [pc, #32]	; 10b8 <opfunc_func_off+0x318>
    1094:	ebfffffe 	bl	0 <osal_err_print>
    1098:	eaffffd9 	b	1004 <opfunc_func_off+0x264>
	...
    10a4:	00000164 	andeq	r0, r0, r4, ror #2
    10a8:	00000820 	andeq	r0, r0, r0, lsr #16
    10ac:	00000000 	andeq	r0, r0, r0
    10b0:	000008dc 	ldrdeq	r0, [r0], -ip
    10b4:	00000914 	andeq	r0, r0, r4, lsl r9
    10b8:	0000026c 	andeq	r0, r0, ip, ror #4
    10bc:	0000027c 	andeq	r0, r0, ip, ror r2
    10c0:	000002ac 	andeq	r0, r0, ip, lsr #5
    10c4:	000000d4 	ldrdeq	r0, [r0], -r4
    10c8:	00000950 	andeq	r0, r0, r0, asr r9
    10cc:	000002b0 			; <UNDEFINED> instruction: 0x000002b0
    10d0:	000008b4 			; <UNDEFINED> instruction: 0x000008b4
    10d4:	00000888 	andeq	r0, r0, r8, lsl #17
    10d8:	000007c8 	andeq	r0, r0, r8, asr #15
    10dc:	000007ec 	andeq	r0, r0, ip, ror #15
    10e0:	00000858 	andeq	r0, r0, r8, asr r8

000010e4 <wmt_core_tx>:
    10e4:	e1a0c00d 	mov	ip, sp
    10e8:	e92dd800 	push	{fp, ip, lr, pc}
    10ec:	e24cb004 	sub	fp, ip, #4
    10f0:	ebfffffe 	bl	0 <wmt_ctrl_tx_ex>
    10f4:	e89da800 	ldm	sp, {fp, sp, pc}

000010f8 <wmt_core_init_script>:
    10f8:	e1a0c00d 	mov	ip, sp
    10fc:	e92ddff0 	push	{r4, r5, r6, r7, r8, r9, sl, fp, ip, lr, pc}
    1100:	e24cb004 	sub	fp, ip, #4
    1104:	e24ddf4f 	sub	sp, sp, #316	; 0x13c
    1108:	e2519000 	subs	r9, r1, #0
    110c:	da000078 	ble	12f4 <wmt_core_init_script+0x1fc>
    1110:	e59f61e4 	ldr	r6, [pc, #484]	; 12fc <wmt_core_init_script+0x204>
    1114:	e1a04000 	mov	r4, r0
    1118:	e3a07000 	mov	r7, #0
    111c:	e24ba030 	sub	sl, fp, #48	; 0x30
    1120:	e24b5e13 	sub	r5, fp, #304	; 0x130
    1124:	ea000025 	b	11c0 <wmt_core_init_script+0xc8>
    1128:	e5941004 	ldr	r1, [r4, #4]
    112c:	e1a0200a 	mov	r2, sl
    1130:	e3a03000 	mov	r3, #0
    1134:	e5940000 	ldr	r0, [r4]
    1138:	ebfffffe 	bl	10e4 <wmt_core_tx>
    113c:	e3a02c01 	mov	r2, #256	; 0x100
    1140:	e250c000 	subs	ip, r0, #0
    1144:	e1a00005 	mov	r0, r5
    1148:	e1a0100c 	mov	r1, ip
    114c:	1a00002d 	bne	1208 <wmt_core_init_script+0x110>
    1150:	e5948004 	ldr	r8, [r4, #4]
    1154:	e51be030 	ldr	lr, [fp, #-48]	; 0xffffffd0
    1158:	e158000e 	cmp	r8, lr
    115c:	1a00002b 	bne	1210 <wmt_core_init_script+0x118>
    1160:	ebfffffe 	bl	0 <osal_memset>
    1164:	e1a00005 	mov	r0, r5
    1168:	e594100c 	ldr	r1, [r4, #12]
    116c:	e1a0200a 	mov	r2, sl
    1170:	ebfffffe 	bl	8b4 <wmt_core_rx>
    1174:	e2508000 	subs	r8, r0, #0
    1178:	e1a00005 	mov	r0, r5
    117c:	1a00002e 	bne	123c <wmt_core_init_script+0x144>
    1180:	e594c00c 	ldr	ip, [r4, #12]
    1184:	e51be030 	ldr	lr, [fp, #-48]	; 0xffffffd0
    1188:	e1a0200c 	mov	r2, ip
    118c:	e15c000e 	cmp	ip, lr
    1190:	1a00002b 	bne	1244 <wmt_core_init_script+0x14c>
    1194:	e5941008 	ldr	r1, [r4, #8]
    1198:	ebfffffe 	bl	0 <osal_memcmp>
    119c:	e3500000 	cmp	r0, #0
    11a0:	1a000031 	bne	126c <wmt_core_init_script+0x174>
    11a4:	e5963000 	ldr	r3, [r6]
    11a8:	e2877001 	add	r7, r7, #1
    11ac:	e3530002 	cmp	r3, #2
    11b0:	8a00000a 	bhi	11e0 <wmt_core_init_script+0xe8>
    11b4:	e1570009 	cmp	r7, r9
    11b8:	e2844014 	add	r4, r4, #20
    11bc:	0a00000e 	beq	11fc <wmt_core_init_script+0x104>
    11c0:	e5963000 	ldr	r3, [r6]
    11c4:	e3530002 	cmp	r3, #2
    11c8:	9affffd6 	bls	1128 <wmt_core_init_script+0x30>
    11cc:	e5942010 	ldr	r2, [r4, #16]
    11d0:	e59f1128 	ldr	r1, [pc, #296]	; 1300 <wmt_core_init_script+0x208>
    11d4:	e59f0128 	ldr	r0, [pc, #296]	; 1304 <wmt_core_init_script+0x20c>
    11d8:	ebfffffe 	bl	0 <osal_dbg_print>
    11dc:	eaffffd1 	b	1128 <wmt_core_init_script+0x30>
    11e0:	e5942010 	ldr	r2, [r4, #16]
    11e4:	e2844014 	add	r4, r4, #20
    11e8:	e59f0118 	ldr	r0, [pc, #280]	; 1308 <wmt_core_init_script+0x210>
    11ec:	e59f110c 	ldr	r1, [pc, #268]	; 1300 <wmt_core_init_script+0x208>
    11f0:	ebfffffe 	bl	0 <osal_dbg_print>
    11f4:	e1570009 	cmp	r7, r9
    11f8:	1afffff0 	bne	11c0 <wmt_core_init_script+0xc8>
    11fc:	e3a00000 	mov	r0, #0
    1200:	e24bd028 	sub	sp, fp, #40	; 0x28
    1204:	e89daff0 	ldm	sp, {r4, r5, r6, r7, r8, r9, sl, fp, sp, pc}
    1208:	e5948004 	ldr	r8, [r4, #4]
    120c:	e51be030 	ldr	lr, [fp, #-48]	; 0xffffffd0
    1210:	e5943010 	ldr	r3, [r4, #16]
    1214:	e30022a7 	movw	r2, #679	; 0x2a7
    1218:	e59f10e0 	ldr	r1, [pc, #224]	; 1300 <wmt_core_init_script+0x208>
    121c:	e59f00e8 	ldr	r0, [pc, #232]	; 130c <wmt_core_init_script+0x214>
    1220:	e88d5000 	stm	sp, {ip, lr}
    1224:	e58d8008 	str	r8, [sp, #8]
    1228:	ebfffffe 	bl	0 <osal_err_print>
    122c:	e1570009 	cmp	r7, r9
    1230:	13e00000 	mvnne	r0, #0
    1234:	0afffff0 	beq	11fc <wmt_core_init_script+0x104>
    1238:	eafffff0 	b	1200 <wmt_core_init_script+0x108>
    123c:	e594c00c 	ldr	ip, [r4, #12]
    1240:	e51be030 	ldr	lr, [fp, #-48]	; 0xffffffd0
    1244:	e5943010 	ldr	r3, [r4, #16]
    1248:	e30022ae 	movw	r2, #686	; 0x2ae
    124c:	e59f10ac 	ldr	r1, [pc, #172]	; 1300 <wmt_core_init_script+0x208>
    1250:	e59f00b8 	ldr	r0, [pc, #184]	; 1310 <wmt_core_init_script+0x218>
    1254:	e58de004 	str	lr, [sp, #4]
    1258:	e58dc008 	str	ip, [sp, #8]
    125c:	e58d8000 	str	r8, [sp]
    1260:	ebfffffe 	bl	0 <osal_err_print>
    1264:	ebfffffe 	bl	0 <mtk_wcn_stp_dbg_dump_package>
    1268:	eaffffef 	b	122c <wmt_core_init_script+0x134>
    126c:	e5943010 	ldr	r3, [r4, #16]
    1270:	e3a02fad 	mov	r2, #692	; 0x2b4
    1274:	e59f1084 	ldr	r1, [pc, #132]	; 1300 <wmt_core_init_script+0x208>
    1278:	e59f0094 	ldr	r0, [pc, #148]	; 1314 <wmt_core_init_script+0x21c>
    127c:	ebfffffe 	bl	0 <osal_err_print>
    1280:	e55be12f 	ldrb	lr, [fp, #-303]	; 0xfffffed1
    1284:	e55b012e 	ldrb	r0, [fp, #-302]	; 0xfffffed2
    1288:	e30022b7 	movw	r2, #695	; 0x2b7
    128c:	e55b112d 	ldrb	r1, [fp, #-301]	; 0xfffffed3
    1290:	e55b312c 	ldrb	r3, [fp, #-300]	; 0xfffffed4
    1294:	e55b5130 	ldrb	r5, [fp, #-304]	; 0xfffffed0
    1298:	e594c008 	ldr	ip, [r4, #8]
    129c:	e58d0008 	str	r0, [sp, #8]
    12a0:	e58d100c 	str	r1, [sp, #12]
    12a4:	e88d4020 	stm	sp, {r5, lr}
    12a8:	e58d3010 	str	r3, [sp, #16]
    12ac:	e594300c 	ldr	r3, [r4, #12]
    12b0:	e59f1048 	ldr	r1, [pc, #72]	; 1300 <wmt_core_init_script+0x208>
    12b4:	e59f005c 	ldr	r0, [pc, #92]	; 1318 <wmt_core_init_script+0x220>
    12b8:	e58d3014 	str	r3, [sp, #20]
    12bc:	e5dce000 	ldrb	lr, [ip]
    12c0:	e51b3030 	ldr	r3, [fp, #-48]	; 0xffffffd0
    12c4:	e58de018 	str	lr, [sp, #24]
    12c8:	e5dce001 	ldrb	lr, [ip, #1]
    12cc:	e58de01c 	str	lr, [sp, #28]
    12d0:	e5dce002 	ldrb	lr, [ip, #2]
    12d4:	e58de020 	str	lr, [sp, #32]
    12d8:	e5dce003 	ldrb	lr, [ip, #3]
    12dc:	e58de024 	str	lr, [sp, #36]	; 0x24
    12e0:	e5dcc004 	ldrb	ip, [ip, #4]
    12e4:	e58dc028 	str	ip, [sp, #40]	; 0x28
    12e8:	ebfffffe 	bl	0 <osal_err_print>
    12ec:	ebfffffe 	bl	0 <mtk_wcn_stp_dbg_dump_package>
    12f0:	eaffffcd 	b	122c <wmt_core_init_script+0x134>
    12f4:	e3a07000 	mov	r7, #0
    12f8:	eaffffcb 	b	122c <wmt_core_init_script+0x134>
    12fc:	00000000 	andeq	r0, r0, r0
    1300:	00000174 	andeq	r0, r0, r4, ror r1
    1304:	0000095c 	andeq	r0, r0, ip, asr r9
    1308:	00000a88 	andeq	r0, r0, r8, lsl #21
    130c:	00000980 	andeq	r0, r0, r0, lsl #19
    1310:	000009bc 			; <UNDEFINED> instruction: 0x000009bc
    1314:	00000a00 	andeq	r0, r0, r0, lsl #20
    1318:	00000a30 	andeq	r0, r0, r0, lsr sl

0000131c <wmt_core_reg_rw_raw>:
    131c:	e1a0c00d 	mov	ip, sp
    1320:	e92dddf0 	push	{r4, r5, r6, r7, r8, sl, fp, ip, lr, pc}
    1324:	e24cb004 	sub	fp, ip, #4
    1328:	e24dd030 	sub	sp, sp, #48	; 0x30
    132c:	e24b6040 	sub	r6, fp, #64	; 0x40
    1330:	e59f41a8 	ldr	r4, [pc, #424]	; 14e0 <wmt_core_reg_rw_raw+0x1c4>
    1334:	e286c004 	add	ip, r6, #4
    1338:	e1a05000 	mov	r5, r0
    133c:	e3550000 	cmp	r5, #0
    1340:	e3a07000 	mov	r7, #0
    1344:	e50b1048 	str	r1, [fp, #-72]	; 0xffffffb8
    1348:	e1a0a002 	mov	sl, r2
    134c:	e48c7004 	str	r7, [ip], #4
    1350:	e24b1048 	sub	r1, fp, #72	; 0x48
    1354:	e48c7004 	str	r7, [ip], #4
    1358:	e3a02004 	mov	r2, #4
    135c:	e58c7000 	str	r7, [ip]
    1360:	e2840018 	add	r0, r4, #24
    1364:	e50b304c 	str	r3, [fp, #-76]	; 0xffffffb4
    1368:	13a03001 	movne	r3, #1
    136c:	03a03002 	moveq	r3, #2
    1370:	e50b7040 	str	r7, [fp, #-64]	; 0xffffffc0
    1374:	e5c43014 	strb	r3, [r4, #20]
    1378:	ebfffffe 	bl	0 <osal_memcpy>
    137c:	e1a0100a 	mov	r1, sl
    1380:	e3a02004 	mov	r2, #4
    1384:	e284001c 	add	r0, r4, #28
    1388:	e24b8028 	sub	r8, fp, #40	; 0x28
    138c:	ebfffffe 	bl	0 <osal_memcpy>
    1390:	e24b104c 	sub	r1, fp, #76	; 0x4c
    1394:	e3a02004 	mov	r2, #4
    1398:	e2840020 	add	r0, r4, #32
    139c:	ebfffffe 	bl	0 <osal_memcpy>
    13a0:	e1a03007 	mov	r3, r7
    13a4:	e2840010 	add	r0, r4, #16
    13a8:	e3a01014 	mov	r1, #20
    13ac:	e1a02008 	mov	r2, r8
    13b0:	ebfffffe 	bl	10e4 <wmt_core_tx>
    13b4:	e2503000 	subs	r3, r0, #0
    13b8:	151bc028 	ldrne	ip, [fp, #-40]	; 0xffffffd8
    13bc:	1a000029 	bne	1468 <wmt_core_reg_rw_raw+0x14c>
    13c0:	e51bc028 	ldr	ip, [fp, #-40]	; 0xffffffd8
    13c4:	e35c0014 	cmp	ip, #20
    13c8:	1a000026 	bne	1468 <wmt_core_reg_rw_raw+0x14c>
    13cc:	e3550000 	cmp	r5, #0
    13d0:	e1a02008 	mov	r2, r8
    13d4:	13a07008 	movne	r7, #8
    13d8:	03a07010 	moveq	r7, #16
    13dc:	e1a00006 	mov	r0, r6
    13e0:	e1a01007 	mov	r1, r7
    13e4:	ebfffffe 	bl	8b4 <wmt_core_rx>
    13e8:	e3500000 	cmp	r0, #0
    13ec:	151bc028 	ldrne	ip, [fp, #-40]	; 0xffffffd8
    13f0:	1a000025 	bne	148c <wmt_core_reg_rw_raw+0x170>
    13f4:	e51bc028 	ldr	ip, [fp, #-40]	; 0xffffffd8
    13f8:	e157000c 	cmp	r7, ip
    13fc:	1a000022 	bne	148c <wmt_core_reg_rw_raw+0x170>
    1400:	e3550000 	cmp	r5, #0
    1404:	0a000001 	beq	1410 <wmt_core_reg_rw_raw+0xf4>
    1408:	e24bd024 	sub	sp, fp, #36	; 0x24
    140c:	e89dadf0 	ldm	sp, {r4, r5, r6, r7, r8, sl, fp, sp, pc}
    1410:	e2841018 	add	r1, r4, #24
    1414:	e3a02004 	mov	r2, #4
    1418:	e24b0030 	sub	r0, fp, #48	; 0x30
    141c:	ebfffffe 	bl	0 <osal_memcpy>
    1420:	e24b002c 	sub	r0, fp, #44	; 0x2c
    1424:	e2861008 	add	r1, r6, #8
    1428:	e3a02004 	mov	r2, #4
    142c:	ebfffffe 	bl	0 <osal_memcpy>
    1430:	e51bc030 	ldr	ip, [fp, #-48]	; 0xffffffd0
    1434:	e51b302c 	ldr	r3, [fp, #-44]	; 0xffffffd4
    1438:	e15c0003 	cmp	ip, r3
    143c:	1a000020 	bne	14c4 <wmt_core_reg_rw_raw+0x1a8>
    1440:	e59f309c 	ldr	r3, [pc, #156]	; 14e4 <wmt_core_reg_rw_raw+0x1c8>
    1444:	e5933000 	ldr	r3, [r3]
    1448:	e3530002 	cmp	r3, #2
    144c:	8a000017 	bhi	14b0 <wmt_core_reg_rw_raw+0x194>
    1450:	e1a0000a 	mov	r0, sl
    1454:	e286100c 	add	r1, r6, #12
    1458:	e3a02004 	mov	r2, #4
    145c:	ebfffffe 	bl	0 <osal_memcpy>
    1460:	e3a00000 	mov	r0, #0
    1464:	eaffffe7 	b	1408 <wmt_core_reg_rw_raw+0xec>
    1468:	e59f0078 	ldr	r0, [pc, #120]	; 14e8 <wmt_core_reg_rw_raw+0x1cc>
    146c:	e3002275 	movw	r2, #629	; 0x275
    1470:	e59f1074 	ldr	r1, [pc, #116]	; 14ec <wmt_core_reg_rw_raw+0x1d0>
    1474:	e58dc000 	str	ip, [sp]
    1478:	e3a0c014 	mov	ip, #20
    147c:	e58dc004 	str	ip, [sp, #4]
    1480:	ebfffffe 	bl	0 <osal_err_print>
    1484:	e3e00001 	mvn	r0, #1
    1488:	eaffffde 	b	1408 <wmt_core_reg_rw_raw+0xec>
    148c:	e1a03000 	mov	r3, r0
    1490:	e59f1054 	ldr	r1, [pc, #84]	; 14ec <wmt_core_reg_rw_raw+0x1d0>
    1494:	e59f0054 	ldr	r0, [pc, #84]	; 14f0 <wmt_core_reg_rw_raw+0x1d4>
    1498:	e300227d 	movw	r2, #637	; 0x27d
    149c:	e58dc000 	str	ip, [sp]
    14a0:	e58d7004 	str	r7, [sp, #4]
    14a4:	ebfffffe 	bl	0 <osal_err_print>
    14a8:	e3e00002 	mvn	r0, #2
    14ac:	eaffffd5 	b	1408 <wmt_core_reg_rw_raw+0xec>
    14b0:	e1a0200c 	mov	r2, ip
    14b4:	e59f1030 	ldr	r1, [pc, #48]	; 14ec <wmt_core_reg_rw_raw+0x1d0>
    14b8:	e59f0034 	ldr	r0, [pc, #52]	; 14f4 <wmt_core_reg_rw_raw+0x1d8>
    14bc:	ebfffffe 	bl	0 <osal_dbg_print>
    14c0:	eaffffe2 	b	1450 <wmt_core_reg_rw_raw+0x134>
    14c4:	e59f002c 	ldr	r0, [pc, #44]	; 14f8 <wmt_core_reg_rw_raw+0x1dc>
    14c8:	e3002289 	movw	r2, #649	; 0x289
    14cc:	e59f1018 	ldr	r1, [pc, #24]	; 14ec <wmt_core_reg_rw_raw+0x1d0>
    14d0:	e58dc000 	str	ip, [sp]
    14d4:	ebfffffe 	bl	0 <osal_err_print>
    14d8:	e3e00003 	mvn	r0, #3
    14dc:	eaffffc9 	b	1408 <wmt_core_reg_rw_raw+0xec>
	...
    14e8:	00000ab4 			; <UNDEFINED> instruction: 0x00000ab4
    14ec:	0000018c 	andeq	r0, r0, ip, lsl #3
    14f0:	00000aec 	andeq	r0, r0, ip, ror #21
    14f4:	00000b58 	andeq	r0, r0, r8, asr fp
    14f8:	00000b20 	andeq	r0, r0, r0, lsr #22

000014fc <wmt_core_stp_init>:
    14fc:	e1a0c00d 	mov	ip, sp
    1500:	e92ddff0 	push	{r4, r5, r6, r7, r8, r9, sl, fp, ip, lr, pc}
    1504:	e24cb004 	sub	fp, ip, #4
    1508:	e24dd024 	sub	sp, sp, #36	; 0x24
    150c:	e59f45e4 	ldr	r4, [pc, #1508]	; 1af8 <wmt_core_stp_init+0x5fc>
    1510:	e5943000 	ldr	r3, [r4]
    1514:	e3530003 	cmp	r3, #3
    1518:	8a00006c 	bhi	16d0 <wmt_core_stp_init+0x1d4>
    151c:	e59f65d8 	ldr	r6, [pc, #1496]	; 1afc <wmt_core_stp_init+0x600>
    1520:	e5963024 	ldr	r3, [r6, #36]	; 0x24
    1524:	e3130001 	tst	r3, #1
    1528:	0a000140 	beq	1a30 <wmt_core_stp_init+0x534>
    152c:	e5968028 	ldr	r8, [r6, #40]	; 0x28
    1530:	e3580001 	cmp	r8, #1
    1534:	124b5030 	subne	r5, fp, #48	; 0x30
    1538:	124b7034 	subne	r7, fp, #52	; 0x34
    153c:	0a000081 	beq	1748 <wmt_core_stp_init+0x24c>
    1540:	e3a00004 	mov	r0, #4
    1544:	e1a01005 	mov	r1, r5
    1548:	e1a02007 	mov	r2, r7
    154c:	e3a03000 	mov	r3, #0
    1550:	e50b3034 	str	r3, [fp, #-52]	; 0xffffffcc
    1554:	e50b3030 	str	r3, [fp, #-48]	; 0xffffffd0
    1558:	ebfffffe 	bl	3f0 <wmt_core_ctrl>
    155c:	e3500000 	cmp	r0, #0
    1560:	1a00013d 	bne	1a5c <wmt_core_stp_init+0x560>
    1564:	e5963028 	ldr	r3, [r6, #40]	; 0x28
    1568:	e3530000 	cmp	r3, #0
    156c:	0a00004e 	beq	16ac <wmt_core_stp_init+0x1b0>
    1570:	e5943000 	ldr	r3, [r4]
    1574:	e3530003 	cmp	r3, #3
    1578:	8a0000f0 	bhi	1940 <wmt_core_stp_init+0x444>
    157c:	e3a00005 	mov	r0, #5
    1580:	e1a01005 	mov	r1, r5
    1584:	e1a02007 	mov	r2, r7
    1588:	e3a03000 	mov	r3, #0
    158c:	e50b3034 	str	r3, [fp, #-52]	; 0xffffffcc
    1590:	e50b3030 	str	r3, [fp, #-48]	; 0xffffffd0
    1594:	ebfffffe 	bl	3f0 <wmt_core_ctrl>
    1598:	e5943000 	ldr	r3, [r4]
    159c:	e3530003 	cmp	r3, #3
    15a0:	e1a08000 	mov	r8, r0
    15a4:	8a00004d 	bhi	16e0 <wmt_core_stp_init+0x1e4>
    15a8:	e3a00005 	mov	r0, #5
    15ac:	e1a01005 	mov	r1, r5
    15b0:	e1a02007 	mov	r2, r7
    15b4:	e3a03001 	mov	r3, #1
    15b8:	e50b3030 	str	r3, [fp, #-48]	; 0xffffffd0
    15bc:	e3a03000 	mov	r3, #0
    15c0:	e50b3034 	str	r3, [fp, #-52]	; 0xffffffcc
    15c4:	ebfffffe 	bl	3f0 <wmt_core_ctrl>
    15c8:	e5943000 	ldr	r3, [r4]
    15cc:	e3530003 	cmp	r3, #3
    15d0:	e0808008 	add	r8, r0, r8
    15d4:	8a000056 	bhi	1734 <wmt_core_stp_init+0x238>
    15d8:	e5963028 	ldr	r3, [r6, #40]	; 0x28
    15dc:	e3530000 	cmp	r3, #0
    15e0:	0a000043 	beq	16f4 <wmt_core_stp_init+0x1f8>
    15e4:	e3530001 	cmp	r3, #1
    15e8:	0a0000ec 	beq	19a0 <wmt_core_stp_init+0x4a4>
    15ec:	e3a00005 	mov	r0, #5
    15f0:	e1a01005 	mov	r1, r5
    15f4:	e1a02007 	mov	r2, r7
    15f8:	e3a03000 	mov	r3, #0
    15fc:	e50b3030 	str	r3, [fp, #-48]	; 0xffffffd0
    1600:	e3a03001 	mov	r3, #1
    1604:	e50b3034 	str	r3, [fp, #-52]	; 0xffffffcc
    1608:	ebfffffe 	bl	3f0 <wmt_core_ctrl>
    160c:	e0908008 	adds	r8, r0, r8
    1610:	1a000118 	bne	1a78 <wmt_core_stp_init+0x57c>
    1614:	e5943000 	ldr	r3, [r4]
    1618:	e59fa4d8 	ldr	sl, [pc, #1240]	; 1af8 <wmt_core_stp_init+0x5fc>
    161c:	e3530003 	cmp	r3, #3
    1620:	8a000069 	bhi	17cc <wmt_core_stp_init+0x2d0>
    1624:	e3a03000 	mov	r3, #0
    1628:	e50b3038 	str	r3, [fp, #-56]	; 0xffffffc8
    162c:	e30f3fff 	movw	r3, #65535	; 0xffff
    1630:	e3a00000 	mov	r0, #0
    1634:	e3a01122 	mov	r1, #-2147483640	; 0x80000008
    1638:	e24b2038 	sub	r2, fp, #56	; 0x38
    163c:	ebfffffe 	bl	131c <wmt_core_reg_rw_raw>
    1640:	e2503000 	subs	r3, r0, #0
    1644:	1a00005a 	bne	17b4 <wmt_core_stp_init+0x2b8>
    1648:	e5943000 	ldr	r3, [r4]
    164c:	e3530001 	cmp	r3, #1
    1650:	9a000003 	bls	1664 <wmt_core_stp_init+0x168>
    1654:	e59f04a4 	ldr	r0, [pc, #1188]	; 1b00 <wmt_core_stp_init+0x604>
    1658:	e59f14a4 	ldr	r1, [pc, #1188]	; 1b04 <wmt_core_stp_init+0x608>
    165c:	e51b2038 	ldr	r2, [fp, #-56]	; 0xffffffc8
    1660:	ebfffffe 	bl	0 <osal_info_print>
    1664:	e51b2038 	ldr	r2, [fp, #-56]	; 0xffffffc8
    1668:	e3063620 	movw	r3, #26144	; 0x6620
    166c:	e1520003 	cmp	r2, r3
    1670:	0a000066 	beq	1810 <wmt_core_stp_init+0x314>
    1674:	e1a03002 	mov	r3, r2
    1678:	e59f0488 	ldr	r0, [pc, #1160]	; 1b08 <wmt_core_stp_init+0x60c>
    167c:	e59f1480 	ldr	r1, [pc, #1152]	; 1b04 <wmt_core_stp_init+0x608>
    1680:	e30023ce 	movw	r2, #974	; 0x3ce
    1684:	ebfffffe 	bl	0 <osal_err_print>
    1688:	e3e03002 	mvn	r3, #2
    168c:	e59f0478 	ldr	r0, [pc, #1144]	; 1b0c <wmt_core_stp_init+0x610>
    1690:	e300232a 	movw	r2, #810	; 0x32a
    1694:	e59f1474 	ldr	r1, [pc, #1140]	; 1b10 <wmt_core_stp_init+0x614>
    1698:	e3e05007 	mvn	r5, #7
    169c:	ebfffffe 	bl	0 <osal_err_print>
    16a0:	e1a00005 	mov	r0, r5
    16a4:	e24bd028 	sub	sp, fp, #40	; 0x28
    16a8:	e89daff0 	ldm	sp, {r4, r5, r6, r7, r8, r9, sl, fp, sp, pc}
    16ac:	e5943000 	ldr	r3, [r4]
    16b0:	e3530001 	cmp	r3, #1
    16b4:	9affffb0 	bls	157c <wmt_core_stp_init+0x80>
    16b8:	e30c2200 	movw	r2, #49664	; 0xc200
    16bc:	e59f144c 	ldr	r1, [pc, #1100]	; 1b10 <wmt_core_stp_init+0x614>
    16c0:	e3402001 	movt	r2, #1
    16c4:	e59f0448 	ldr	r0, [pc, #1096]	; 1b14 <wmt_core_stp_init+0x618>
    16c8:	ebfffffe 	bl	0 <osal_info_print>
    16cc:	eaffffaa 	b	157c <wmt_core_stp_init+0x80>
    16d0:	e59f1438 	ldr	r1, [pc, #1080]	; 1b10 <wmt_core_stp_init+0x614>
    16d4:	e59f043c 	ldr	r0, [pc, #1084]	; 1b18 <wmt_core_stp_init+0x61c>
    16d8:	ebfffffe 	bl	0 <osal_loud_print>
    16dc:	eaffff8e 	b	151c <wmt_core_stp_init+0x20>
    16e0:	e1a02008 	mov	r2, r8
    16e4:	e59f1424 	ldr	r1, [pc, #1060]	; 1b10 <wmt_core_stp_init+0x614>
    16e8:	e59f042c 	ldr	r0, [pc, #1068]	; 1b1c <wmt_core_stp_init+0x620>
    16ec:	ebfffffe 	bl	0 <osal_loud_print>
    16f0:	eaffffac 	b	15a8 <wmt_core_stp_init+0xac>
    16f4:	e3a00005 	mov	r0, #5
    16f8:	e1a01005 	mov	r1, r5
    16fc:	e1a02007 	mov	r2, r7
    1700:	e3a03002 	mov	r3, #2
    1704:	e50b3034 	str	r3, [fp, #-52]	; 0xffffffcc
    1708:	e50b3030 	str	r3, [fp, #-48]	; 0xffffffd0
    170c:	ebfffffe 	bl	3f0 <wmt_core_ctrl>
    1710:	e5943000 	ldr	r3, [r4]
    1714:	e3530003 	cmp	r3, #3
    1718:	e0888000 	add	r8, r8, r0
    171c:	9affffb2 	bls	15ec <wmt_core_stp_init+0xf0>
    1720:	e59f13e8 	ldr	r1, [pc, #1000]	; 1b10 <wmt_core_stp_init+0x614>
    1724:	e1a02008 	mov	r2, r8
    1728:	e59f03f0 	ldr	r0, [pc, #1008]	; 1b20 <wmt_core_stp_init+0x624>
    172c:	ebfffffe 	bl	0 <osal_loud_print>
    1730:	eaffffad 	b	15ec <wmt_core_stp_init+0xf0>
    1734:	e1a02008 	mov	r2, r8
    1738:	e59f13d0 	ldr	r1, [pc, #976]	; 1b10 <wmt_core_stp_init+0x614>
    173c:	e59f03e0 	ldr	r0, [pc, #992]	; 1b24 <wmt_core_stp_init+0x628>
    1740:	ebfffffe 	bl	0 <osal_loud_print>
    1744:	eaffffa3 	b	15d8 <wmt_core_stp_init+0xdc>
    1748:	e24b5030 	sub	r5, fp, #48	; 0x30
    174c:	e24b7034 	sub	r7, fp, #52	; 0x34
    1750:	e3a0000a 	mov	r0, #10
    1754:	e1a01005 	mov	r1, r5
    1758:	e1a02007 	mov	r2, r7
    175c:	e50b8034 	str	r8, [fp, #-52]	; 0xffffffcc
    1760:	e3a0a002 	mov	sl, #2
    1764:	e50ba030 	str	sl, [fp, #-48]	; 0xffffffd0
    1768:	ebfffffe 	bl	3f0 <wmt_core_ctrl>
    176c:	e2503000 	subs	r3, r0, #0
    1770:	1a0000ce 	bne	1ab0 <wmt_core_stp_init+0x5b4>
    1774:	e3a0000b 	mov	r0, #11
    1778:	e1a01005 	mov	r1, r5
    177c:	e1a02007 	mov	r2, r7
    1780:	e586a01c 	str	sl, [r6, #28]
    1784:	e50b3030 	str	r3, [fp, #-48]	; 0xffffffd0
    1788:	e50b8034 	str	r8, [fp, #-52]	; 0xffffffcc
    178c:	ebfffffe 	bl	3f0 <wmt_core_ctrl>
    1790:	e3500000 	cmp	r0, #0
    1794:	1a0000d0 	bne	1adc <wmt_core_stp_init+0x5e0>
    1798:	e5943000 	ldr	r3, [r4]
    179c:	e3530003 	cmp	r3, #3
    17a0:	9affff66 	bls	1540 <wmt_core_stp_init+0x44>
    17a4:	e59f1364 	ldr	r1, [pc, #868]	; 1b10 <wmt_core_stp_init+0x614>
    17a8:	e59f0378 	ldr	r0, [pc, #888]	; 1b28 <wmt_core_stp_init+0x62c>
    17ac:	ebfffffe 	bl	0 <osal_loud_print>
    17b0:	eaffff62 	b	1540 <wmt_core_stp_init+0x44>
    17b4:	e59f0370 	ldr	r0, [pc, #880]	; 1b2c <wmt_core_stp_init+0x630>
    17b8:	e30023b7 	movw	r2, #951	; 0x3b7
    17bc:	e59f1340 	ldr	r1, [pc, #832]	; 1b04 <wmt_core_stp_init+0x608>
    17c0:	ebfffffe 	bl	0 <osal_err_print>
    17c4:	e3e03001 	mvn	r3, #1
    17c8:	eaffffaf 	b	168c <wmt_core_stp_init+0x190>
    17cc:	e59f035c 	ldr	r0, [pc, #860]	; 1b30 <wmt_core_stp_init+0x634>
    17d0:	e59f1338 	ldr	r1, [pc, #824]	; 1b10 <wmt_core_stp_init+0x614>
    17d4:	ebfffffe 	bl	0 <osal_loud_print>
    17d8:	e59a3000 	ldr	r3, [sl]
    17dc:	e3530003 	cmp	r3, #3
    17e0:	9affff8f 	bls	1624 <wmt_core_stp_init+0x128>
    17e4:	e59f032c 	ldr	r0, [pc, #812]	; 1b18 <wmt_core_stp_init+0x61c>
    17e8:	e59f1314 	ldr	r1, [pc, #788]	; 1b04 <wmt_core_stp_init+0x608>
    17ec:	ebfffffe 	bl	0 <osal_loud_print>
    17f0:	e59a3000 	ldr	r3, [sl]
    17f4:	e50b8038 	str	r8, [fp, #-56]	; 0xffffffc8
    17f8:	e3530003 	cmp	r3, #3
    17fc:	9affff8a 	bls	162c <wmt_core_stp_init+0x130>
    1800:	e59f12fc 	ldr	r1, [pc, #764]	; 1b04 <wmt_core_stp_init+0x608>
    1804:	e59f0328 	ldr	r0, [pc, #808]	; 1b34 <wmt_core_stp_init+0x638>
    1808:	ebfffffe 	bl	0 <osal_loud_print>
    180c:	eaffff86 	b	162c <wmt_core_stp_init+0x130>
    1810:	e59f8320 	ldr	r8, [pc, #800]	; 1b38 <wmt_core_stp_init+0x63c>
    1814:	e5989004 	ldr	r9, [r8, #4]
    1818:	e3590000 	cmp	r9, #0
    181c:	0a000070 	beq	19e4 <wmt_core_stp_init+0x4e8>
    1820:	e598e008 	ldr	lr, [r8, #8]
    1824:	e35e0000 	cmp	lr, #0
    1828:	0a000050 	beq	1970 <wmt_core_stp_init+0x474>
    182c:	e598c010 	ldr	ip, [r8, #16]
    1830:	e35c0000 	cmp	ip, #0
    1834:	0598a00c 	ldreq	sl, [r8, #12]
    1838:	0a00004e 	beq	1978 <wmt_core_stp_init+0x47c>
    183c:	e598a00c 	ldr	sl, [r8, #12]
    1840:	e35a0000 	cmp	sl, #0
    1844:	0a00004b 	beq	1978 <wmt_core_stp_init+0x47c>
    1848:	e5943000 	ldr	r3, [r4]
    184c:	e3530002 	cmp	r3, #2
    1850:	9a000007 	bls	1874 <wmt_core_stp_init+0x378>
    1854:	e1a03009 	mov	r3, r9
    1858:	e59f02dc 	ldr	r0, [pc, #732]	; 1b3c <wmt_core_stp_init+0x640>
    185c:	e59f12a0 	ldr	r1, [pc, #672]	; 1b04 <wmt_core_stp_init+0x608>
    1860:	e58dc008 	str	ip, [sp, #8]
    1864:	e58de000 	str	lr, [sp]
    1868:	e58da004 	str	sl, [sp, #4]
    186c:	ebfffffe 	bl	0 <osal_dbg_print>
    1870:	e598c010 	ldr	ip, [r8, #16]
    1874:	e12fff3c 	blx	ip
    1878:	e250c000 	subs	ip, r0, #0
    187c:	1a000033 	bne	1950 <wmt_core_stp_init+0x454>
    1880:	e5943000 	ldr	r3, [r4]
    1884:	e3530001 	cmp	r3, #1
    1888:	95868050 	strls	r8, [r6, #80]	; 0x50
    188c:	9a00000d 	bls	18c8 <wmt_core_stp_init+0x3cc>
    1890:	e59f02a8 	ldr	r0, [pc, #680]	; 1b40 <wmt_core_stp_init+0x644>
    1894:	e59f1268 	ldr	r1, [pc, #616]	; 1b04 <wmt_core_stp_init+0x608>
    1898:	e51b2038 	ldr	r2, [fp, #-56]	; 0xffffffc8
    189c:	ebfffffe 	bl	0 <osal_info_print>
    18a0:	e59f3250 	ldr	r3, [pc, #592]	; 1af8 <wmt_core_stp_init+0x5fc>
    18a4:	e5868050 	str	r8, [r6, #80]	; 0x50
    18a8:	e5933000 	ldr	r3, [r3]
    18ac:	e3530003 	cmp	r3, #3
    18b0:	9a000004 	bls	18c8 <wmt_core_stp_init+0x3cc>
    18b4:	e59f0288 	ldr	r0, [pc, #648]	; 1b44 <wmt_core_stp_init+0x648>
    18b8:	e59f1250 	ldr	r1, [pc, #592]	; 1b10 <wmt_core_stp_init+0x614>
    18bc:	ebfffffe 	bl	0 <osal_loud_print>
    18c0:	e59f3234 	ldr	r3, [pc, #564]	; 1afc <wmt_core_stp_init+0x600>
    18c4:	e5938050 	ldr	r8, [r3, #80]	; 0x50
    18c8:	e5983004 	ldr	r3, [r8, #4]
    18cc:	e3530000 	cmp	r3, #0
    18d0:	0a000047 	beq	19f4 <wmt_core_stp_init+0x4f8>
    18d4:	e59f026c 	ldr	r0, [pc, #620]	; 1b48 <wmt_core_stp_init+0x64c>
    18d8:	e12fff33 	blx	r3
    18dc:	e3500000 	cmp	r0, #0
    18e0:	1a00006b 	bne	1a94 <wmt_core_stp_init+0x598>
    18e4:	e5943000 	ldr	r3, [r4]
    18e8:	e3530003 	cmp	r3, #3
    18ec:	8a00000f 	bhi	1930 <wmt_core_stp_init+0x434>
    18f0:	e1a01005 	mov	r1, r5
    18f4:	e1a02007 	mov	r2, r7
    18f8:	e3a00005 	mov	r0, #5
    18fc:	e3a03001 	mov	r3, #1
    1900:	e50b3034 	str	r3, [fp, #-52]	; 0xffffffcc
    1904:	e50b3030 	str	r3, [fp, #-48]	; 0xffffffd0
    1908:	ebfffffe 	bl	3f0 <wmt_core_ctrl>
    190c:	e5943000 	ldr	r3, [r4]
    1910:	e3530003 	cmp	r3, #3
    1914:	e1a05000 	mov	r5, r0
    1918:	9affff60 	bls	16a0 <wmt_core_stp_init+0x1a4>
    191c:	e1a02005 	mov	r2, r5
    1920:	e59f11e8 	ldr	r1, [pc, #488]	; 1b10 <wmt_core_stp_init+0x614>
    1924:	e59f0220 	ldr	r0, [pc, #544]	; 1b4c <wmt_core_stp_init+0x650>
    1928:	ebfffffe 	bl	0 <osal_loud_print>
    192c:	eaffff5b 	b	16a0 <wmt_core_stp_init+0x1a4>
    1930:	e59f11d8 	ldr	r1, [pc, #472]	; 1b10 <wmt_core_stp_init+0x614>
    1934:	e59f0214 	ldr	r0, [pc, #532]	; 1b50 <wmt_core_stp_init+0x654>
    1938:	ebfffffe 	bl	0 <osal_loud_print>
    193c:	eaffffeb 	b	18f0 <wmt_core_stp_init+0x3f4>
    1940:	e59f11c8 	ldr	r1, [pc, #456]	; 1b10 <wmt_core_stp_init+0x614>
    1944:	e59f0208 	ldr	r0, [pc, #520]	; 1b54 <wmt_core_stp_init+0x658>
    1948:	ebfffffe 	bl	0 <osal_loud_print>
    194c:	eaffff0a 	b	157c <wmt_core_stp_init+0x80>
    1950:	e51b3038 	ldr	r3, [fp, #-56]	; 0xffffffc8
    1954:	e30023db 	movw	r2, #987	; 0x3db
    1958:	e59f01f8 	ldr	r0, [pc, #504]	; 1b58 <wmt_core_stp_init+0x65c>
    195c:	e59f11a0 	ldr	r1, [pc, #416]	; 1b04 <wmt_core_stp_init+0x608>
    1960:	e58dc000 	str	ip, [sp]
    1964:	ebfffffe 	bl	0 <osal_err_print>
    1968:	e3e03004 	mvn	r3, #4
    196c:	eaffff46 	b	168c <wmt_core_stp_init+0x190>
    1970:	e598a00c 	ldr	sl, [r8, #12]
    1974:	e598c010 	ldr	ip, [r8, #16]
    1978:	e3063620 	movw	r3, #26144	; 0x6620
    197c:	e59f01d8 	ldr	r0, [pc, #472]	; 1b5c <wmt_core_stp_init+0x660>
    1980:	e30023d3 	movw	r2, #979	; 0x3d3
    1984:	e59f1178 	ldr	r1, [pc, #376]	; 1b04 <wmt_core_stp_init+0x608>
    1988:	e88d4200 	stm	sp, {r9, lr}
    198c:	e58da008 	str	sl, [sp, #8]
    1990:	e58dc00c 	str	ip, [sp, #12]
    1994:	ebfffffe 	bl	0 <osal_err_print>
    1998:	e3e03003 	mvn	r3, #3
    199c:	eaffff3a 	b	168c <wmt_core_stp_init+0x190>
    19a0:	e3a00005 	mov	r0, #5
    19a4:	e1a01005 	mov	r1, r5
    19a8:	e1a02007 	mov	r2, r7
    19ac:	e3a03002 	mov	r3, #2
    19b0:	e50b3030 	str	r3, [fp, #-48]	; 0xffffffd0
    19b4:	e3a03004 	mov	r3, #4
    19b8:	e50b3034 	str	r3, [fp, #-52]	; 0xffffffcc
    19bc:	ebfffffe 	bl	3f0 <wmt_core_ctrl>
    19c0:	e5943000 	ldr	r3, [r4]
    19c4:	e3530003 	cmp	r3, #3
    19c8:	e0888000 	add	r8, r8, r0
    19cc:	9affff06 	bls	15ec <wmt_core_stp_init+0xf0>
    19d0:	e1a02008 	mov	r2, r8
    19d4:	e59f1134 	ldr	r1, [pc, #308]	; 1b10 <wmt_core_stp_init+0x614>
    19d8:	e59f0180 	ldr	r0, [pc, #384]	; 1b60 <wmt_core_stp_init+0x664>
    19dc:	ebfffffe 	bl	0 <osal_loud_print>
    19e0:	eaffff01 	b	15ec <wmt_core_stp_init+0xf0>
    19e4:	e598a00c 	ldr	sl, [r8, #12]
    19e8:	e598e008 	ldr	lr, [r8, #8]
    19ec:	e598c010 	ldr	ip, [r8, #16]
    19f0:	eaffffe0 	b	1978 <wmt_core_stp_init+0x47c>
    19f4:	e59f3168 	ldr	r3, [pc, #360]	; 1b64 <wmt_core_stp_init+0x668>
    19f8:	e3a02e33 	mov	r2, #816	; 0x330
    19fc:	e59f0164 	ldr	r0, [pc, #356]	; 1b68 <wmt_core_stp_init+0x66c>
    1a00:	e59f1164 	ldr	r1, [pc, #356]	; 1b6c <wmt_core_stp_init+0x670>
    1a04:	ebfffffe 	bl	0 <osal_err_print>
    1a08:	e5963050 	ldr	r3, [r6, #80]	; 0x50
    1a0c:	e5933004 	ldr	r3, [r3, #4]
    1a10:	e3530000 	cmp	r3, #0
    1a14:	1affffae 	bne	18d4 <wmt_core_stp_init+0x3d8>
    1a18:	e3002335 	movw	r2, #821	; 0x335
    1a1c:	e59f10ec 	ldr	r1, [pc, #236]	; 1b10 <wmt_core_stp_init+0x614>
    1a20:	e59f0148 	ldr	r0, [pc, #328]	; 1b70 <wmt_core_stp_init+0x674>
    1a24:	e3e05008 	mvn	r5, #8
    1a28:	ebfffffe 	bl	0 <osal_err_print>
    1a2c:	eaffff1b 	b	16a0 <wmt_core_stp_init+0x1a4>
    1a30:	e59f10d8 	ldr	r1, [pc, #216]	; 1b10 <wmt_core_stp_init+0x614>
    1a34:	e30022cd 	movw	r2, #717	; 0x2cd
    1a38:	e59f0134 	ldr	r0, [pc, #308]	; 1b74 <wmt_core_stp_init+0x678>
    1a3c:	e3e05000 	mvn	r5, #0
    1a40:	ebfffffe 	bl	0 <osal_err_print>
    1a44:	e59f1120 	ldr	r1, [pc, #288]	; 1b6c <wmt_core_stp_init+0x670>
    1a48:	e30022ce 	movw	r2, #718	; 0x2ce
    1a4c:	e59f3124 	ldr	r3, [pc, #292]	; 1b78 <wmt_core_stp_init+0x67c>
    1a50:	e59f0110 	ldr	r0, [pc, #272]	; 1b68 <wmt_core_stp_init+0x66c>
    1a54:	ebfffffe 	bl	0 <osal_err_print>
    1a58:	eaffff10 	b	16a0 <wmt_core_stp_init+0x1a4>
    1a5c:	e1a03000 	mov	r3, r0
    1a60:	e59f10a8 	ldr	r1, [pc, #168]	; 1b10 <wmt_core_stp_init+0x614>
    1a64:	e59f0110 	ldr	r0, [pc, #272]	; 1b7c <wmt_core_stp_init+0x680>
    1a68:	e30022ef 	movw	r2, #751	; 0x2ef
    1a6c:	ebfffffe 	bl	0 <osal_err_print>
    1a70:	e3e05003 	mvn	r5, #3
    1a74:	eaffff09 	b	16a0 <wmt_core_stp_init+0x1a4>
    1a78:	e1a03008 	mov	r3, r8
    1a7c:	e59f00fc 	ldr	r0, [pc, #252]	; 1b80 <wmt_core_stp_init+0x684>
    1a80:	e59f1088 	ldr	r1, [pc, #136]	; 1b10 <wmt_core_stp_init+0x614>
    1a84:	e3002321 	movw	r2, #801	; 0x321
    1a88:	ebfffffe 	bl	0 <osal_err_print>
    1a8c:	e3e05006 	mvn	r5, #6
    1a90:	eaffff02 	b	16a0 <wmt_core_stp_init+0x1a4>
    1a94:	e1a03000 	mov	r3, r0
    1a98:	e59f1070 	ldr	r1, [pc, #112]	; 1b10 <wmt_core_stp_init+0x614>
    1a9c:	e59f00e0 	ldr	r0, [pc, #224]	; 1b84 <wmt_core_stp_init+0x688>
    1aa0:	e3002339 	movw	r2, #825	; 0x339
    1aa4:	ebfffffe 	bl	0 <osal_err_print>
    1aa8:	e3e05009 	mvn	r5, #9
    1aac:	eafffefb 	b	16a0 <wmt_core_stp_init+0x1a4>
    1ab0:	e59f1058 	ldr	r1, [pc, #88]	; 1b10 <wmt_core_stp_init+0x614>
    1ab4:	e3a02fb6 	mov	r2, #728	; 0x2d8
    1ab8:	e59f00c8 	ldr	r0, [pc, #200]	; 1b88 <wmt_core_stp_init+0x68c>
    1abc:	e3e05001 	mvn	r5, #1
    1ac0:	ebfffffe 	bl	0 <osal_err_print>
    1ac4:	e59f10a0 	ldr	r1, [pc, #160]	; 1b6c <wmt_core_stp_init+0x670>
    1ac8:	e30022d9 	movw	r2, #729	; 0x2d9
    1acc:	e59f30a4 	ldr	r3, [pc, #164]	; 1b78 <wmt_core_stp_init+0x67c>
    1ad0:	e59f0090 	ldr	r0, [pc, #144]	; 1b68 <wmt_core_stp_init+0x66c>
    1ad4:	ebfffffe 	bl	0 <osal_err_print>
    1ad8:	eafffef0 	b	16a0 <wmt_core_stp_init+0x1a4>
    1adc:	e1a03000 	mov	r3, r0
    1ae0:	e59f1028 	ldr	r1, [pc, #40]	; 1b10 <wmt_core_stp_init+0x614>
    1ae4:	e59f00a0 	ldr	r0, [pc, #160]	; 1b8c <wmt_core_stp_init+0x690>
    1ae8:	e30022e3 	movw	r2, #739	; 0x2e3
    1aec:	ebfffffe 	bl	0 <osal_err_print>
    1af0:	e3e05002 	mvn	r5, #2
    1af4:	eafffee9 	b	16a0 <wmt_core_stp_init+0x1a4>
	...
    1b00:	00000e08 	andeq	r0, r0, r8, lsl #28
    1b04:	000001b4 			; <UNDEFINED> instruction: 0x000001b4
    1b08:	00000e34 	andeq	r0, r0, r4, lsr lr
    1b0c:	00000f94 	muleq	r0, r4, pc	; <UNPREDICTABLE>
    1b10:	000001a0 	andeq	r0, r0, r0, lsr #3
    1b14:	00000c6c 	andeq	r0, r0, ip, ror #24
    1b18:	00000b84 	andeq	r0, r0, r4, lsl #23
    1b1c:	00000cc4 	andeq	r0, r0, r4, asr #25
    1b20:	00000d0c 	andeq	r0, r0, ip, lsl #26
    1b24:	00000ce8 	andeq	r0, r0, r8, ror #25
    1b28:	00000c20 	andeq	r0, r0, r0, lsr #24
    1b2c:	00000dd4 	ldrdeq	r0, [r0], -r4
    1b30:	00000d88 	andeq	r0, r0, r8, lsl #27
    1b34:	00000da8 	andeq	r0, r0, r8, lsr #27
    1b38:	00000000 	andeq	r0, r0, r0
    1b3c:	00000edc 	ldrdeq	r0, [r0], -ip
    1b40:	00000f68 	andeq	r0, r0, r8, ror #30
    1b44:	00000fb8 			; <UNDEFINED> instruction: 0x00000fb8
    1b48:	00000028 	andeq	r0, r0, r8, lsr #32
    1b4c:	00001050 	andeq	r1, r0, r0, asr r0
    1b50:	0000102c 	andeq	r1, r0, ip, lsr #32
    1b54:	00000ca8 	andeq	r0, r0, r8, lsr #25
    1b58:	00000f34 	andeq	r0, r0, r4, lsr pc
    1b5c:	00000e6c 	andeq	r0, r0, ip, ror #28
    1b60:	00000d34 	andeq	r0, r0, r4, lsr sp
    1b64:	00000fd4 	ldrdeq	r0, [r0], -r4
    1b68:	0000026c 	andeq	r0, r0, ip, ror #4
    1b6c:	0000027c 	andeq	r0, r0, ip, ror r2
    1b70:	00000624 	andeq	r0, r0, r4, lsr #12
    1b74:	00000b98 	muleq	r0, r8, fp
    1b78:	000002ac 	andeq	r0, r0, ip, lsr #5
    1b7c:	00000c48 	andeq	r0, r0, r8, asr #24
    1b80:	00000d5c 	andeq	r0, r0, ip, asr sp
    1b84:	00000ff4 	strdeq	r0, [r0], -r4
    1b88:	00000bb8 			; <UNDEFINED> instruction: 0x00000bb8
    1b8c:	00000be8 	andeq	r0, r0, r8, ror #23

00001b90 <opfunc_sw_rst>:
    1b90:	e1a0c00d 	mov	ip, sp
    1b94:	e92dd800 	push	{fp, ip, lr, pc}
    1b98:	e24cb004 	sub	fp, ip, #4
    1b9c:	ebfffe56 	bl	14fc <wmt_core_stp_init>
    1ba0:	e89da800 	ldm	sp, {fp, sp, pc}

00001ba4 <opfunc_pwr_on>:
    1ba4:	e1a0c00d 	mov	ip, sp
    1ba8:	e92ddff0 	push	{r4, r5, r6, r7, r8, r9, sl, fp, ip, lr, pc}
    1bac:	e24cb004 	sub	fp, ip, #4
    1bb0:	e24dd00c 	sub	sp, sp, #12
    1bb4:	e59fa194 	ldr	sl, [pc, #404]	; 1d50 <opfunc_pwr_on+0x1ac>
    1bb8:	e1a09000 	mov	r9, r0
    1bbc:	e59a3010 	ldr	r3, [sl, #16]
    1bc0:	e3530000 	cmp	r3, #0
    1bc4:	1a000056 	bne	1d24 <opfunc_pwr_on+0x180>
    1bc8:	e5903004 	ldr	r3, [r0, #4]
    1bcc:	e3130001 	tst	r3, #1
    1bd0:	1a00004b 	bne	1d04 <opfunc_pwr_on+0x160>
    1bd4:	e3a04002 	mov	r4, #2
    1bd8:	e3a05001 	mov	r5, #1
    1bdc:	e3a07000 	mov	r7, #0
    1be0:	e59f816c 	ldr	r8, [pc, #364]	; 1d54 <opfunc_pwr_on+0x1b0>
    1be4:	ea00000a 	b	1c14 <opfunc_pwr_on+0x70>
    1be8:	e3540000 	cmp	r4, #0
    1bec:	da00002a 	ble	1c9c <opfunc_pwr_on+0xf8>
    1bf0:	e5983000 	ldr	r3, [r8]
    1bf4:	e3530001 	cmp	r3, #1
    1bf8:	9a000003 	bls	1c0c <opfunc_pwr_on+0x68>
    1bfc:	e59f1154 	ldr	r1, [pc, #340]	; 1d58 <opfunc_pwr_on+0x1b4>
    1c00:	e1a02005 	mov	r2, r5
    1c04:	e59f0150 	ldr	r0, [pc, #336]	; 1d5c <opfunc_pwr_on+0x1b8>
    1c08:	ebfffffe 	bl	0 <osal_info_print>
    1c0c:	e2455001 	sub	r5, r5, #1
    1c10:	e2444001 	sub	r4, r4, #1
    1c14:	e3a00001 	mov	r0, #1
    1c18:	e24b1030 	sub	r1, fp, #48	; 0x30
    1c1c:	e24b2034 	sub	r2, fp, #52	; 0x34
    1c20:	e50b7030 	str	r7, [fp, #-48]	; 0xffffffd0
    1c24:	e50b7034 	str	r7, [fp, #-52]	; 0xffffffcc
    1c28:	ebfffffe 	bl	3f0 <wmt_core_ctrl>
    1c2c:	e3500000 	cmp	r0, #0
    1c30:	1a00001b 	bne	1ca4 <opfunc_pwr_on+0x100>
    1c34:	e3a03001 	mov	r3, #1
    1c38:	e58a3010 	str	r3, [sl, #16]
    1c3c:	ebfffe2e 	bl	14fc <wmt_core_stp_init>
    1c40:	e2506000 	subs	r6, r0, #0
    1c44:	0a000025 	beq	1ce0 <opfunc_pwr_on+0x13c>
    1c48:	e1a03006 	mov	r3, r6
    1c4c:	e59f1104 	ldr	r1, [pc, #260]	; 1d58 <opfunc_pwr_on+0x1b4>
    1c50:	e3002422 	movw	r2, #1058	; 0x422
    1c54:	e59f0104 	ldr	r0, [pc, #260]	; 1d60 <opfunc_pwr_on+0x1bc>
    1c58:	ebfffffe 	bl	0 <osal_err_print>
    1c5c:	e59f3100 	ldr	r3, [pc, #256]	; 1d64 <opfunc_pwr_on+0x1c0>
    1c60:	e59f1100 	ldr	r1, [pc, #256]	; 1d68 <opfunc_pwr_on+0x1c4>
    1c64:	e3002423 	movw	r2, #1059	; 0x423
    1c68:	e59f00fc 	ldr	r0, [pc, #252]	; 1d6c <opfunc_pwr_on+0x1c8>
    1c6c:	ebfffffe 	bl	0 <osal_err_print>
    1c70:	ebfffb70 	bl	a38 <wmt_core_stp_deinit>
    1c74:	e1a00009 	mov	r0, r9
    1c78:	ebfffbfb 	bl	c6c <opfunc_pwr_off>
    1c7c:	e2503000 	subs	r3, r0, #0
    1c80:	0affffd8 	beq	1be8 <opfunc_pwr_on+0x44>
    1c84:	e59f00e4 	ldr	r0, [pc, #228]	; 1d70 <opfunc_pwr_on+0x1cc>
    1c88:	e3002429 	movw	r2, #1065	; 0x429
    1c8c:	e59f10c4 	ldr	r1, [pc, #196]	; 1d58 <opfunc_pwr_on+0x1b4>
    1c90:	ebfffffe 	bl	0 <osal_err_print>
    1c94:	e3540000 	cmp	r4, #0
    1c98:	caffffd4 	bgt	1bf0 <opfunc_pwr_on+0x4c>
    1c9c:	e3e06001 	mvn	r6, #1
    1ca0:	ea000014 	b	1cf8 <opfunc_pwr_on+0x154>
    1ca4:	e1a03000 	mov	r3, r0
    1ca8:	e59f10a8 	ldr	r1, [pc, #168]	; 1d58 <opfunc_pwr_on+0x1b4>
    1cac:	e59f00c0 	ldr	r0, [pc, #192]	; 1d74 <opfunc_pwr_on+0x1d0>
    1cb0:	e3002416 	movw	r2, #1046	; 0x416
    1cb4:	ebfffffe 	bl	0 <osal_err_print>
    1cb8:	e3540000 	cmp	r4, #0
    1cbc:	1a000016 	bne	1d1c <opfunc_pwr_on+0x178>
    1cc0:	e5983000 	ldr	r3, [r8]
    1cc4:	e3530001 	cmp	r3, #1
    1cc8:	9affffcf 	bls	1c0c <opfunc_pwr_on+0x68>
    1ccc:	e59f1084 	ldr	r1, [pc, #132]	; 1d58 <opfunc_pwr_on+0x1b4>
    1cd0:	e1a02005 	mov	r2, r5
    1cd4:	e59f009c 	ldr	r0, [pc, #156]	; 1d78 <opfunc_pwr_on+0x1d4>
    1cd8:	ebfffffe 	bl	0 <osal_info_print>
    1cdc:	eaffffca 	b	1c0c <opfunc_pwr_on+0x68>
    1ce0:	e59f306c 	ldr	r3, [pc, #108]	; 1d54 <opfunc_pwr_on+0x1b0>
    1ce4:	e5933000 	ldr	r3, [r3]
    1ce8:	e3530002 	cmp	r3, #2
    1cec:	8a000006 	bhi	1d0c <opfunc_pwr_on+0x168>
    1cf0:	e3a03002 	mov	r3, #2
    1cf4:	e58a3010 	str	r3, [sl, #16]
    1cf8:	e1a00006 	mov	r0, r6
    1cfc:	e24bd028 	sub	sp, fp, #40	; 0x28
    1d00:	e89daff0 	ldm	sp, {r4, r5, r6, r7, r8, r9, sl, fp, sp, pc}
    1d04:	ebfff983 	bl	318 <opfunc_hif_conf>
    1d08:	eaffffb1 	b	1bd4 <opfunc_pwr_on+0x30>
    1d0c:	e59f1044 	ldr	r1, [pc, #68]	; 1d58 <opfunc_pwr_on+0x1b4>
    1d10:	e59f0064 	ldr	r0, [pc, #100]	; 1d7c <opfunc_pwr_on+0x1d8>
    1d14:	ebfffffe 	bl	0 <osal_dbg_print>
    1d18:	eafffff4 	b	1cf0 <opfunc_pwr_on+0x14c>
    1d1c:	e3e06000 	mvn	r6, #0
    1d20:	eafffff4 	b	1cf8 <opfunc_pwr_on+0x154>
    1d24:	e59f102c 	ldr	r1, [pc, #44]	; 1d58 <opfunc_pwr_on+0x1b4>
    1d28:	e3002406 	movw	r2, #1030	; 0x406
    1d2c:	e59f004c 	ldr	r0, [pc, #76]	; 1d80 <opfunc_pwr_on+0x1dc>
    1d30:	e3e06000 	mvn	r6, #0
    1d34:	ebfffffe 	bl	0 <osal_err_print>
    1d38:	e59f1028 	ldr	r1, [pc, #40]	; 1d68 <opfunc_pwr_on+0x1c4>
    1d3c:	e3002407 	movw	r2, #1031	; 0x407
    1d40:	e59f301c 	ldr	r3, [pc, #28]	; 1d64 <opfunc_pwr_on+0x1c0>
    1d44:	e59f0020 	ldr	r0, [pc, #32]	; 1d6c <opfunc_pwr_on+0x1c8>
    1d48:	ebfffffe 	bl	0 <osal_err_print>
    1d4c:	eaffffe9 	b	1cf8 <opfunc_pwr_on+0x154>
	...
    1d58:	000001c8 	andeq	r0, r0, r8, asr #3
    1d5c:	00001170 	andeq	r1, r0, r0, ror r1
    1d60:	00001100 	andeq	r1, r0, r0, lsl #2
    1d64:	000002ac 	andeq	r0, r0, ip, lsr #5
    1d68:	0000027c 	andeq	r0, r0, ip, ror r2
    1d6c:	0000026c 	andeq	r0, r0, ip, ror #4
    1d70:	00001130 	andeq	r1, r0, r0, lsr r1
    1d74:	000010b0 	strheq	r1, [r0], -r0
    1d78:	000010e4 	andeq	r1, r0, r4, ror #1
    1d7c:	00001198 	muleq	r0, r8, r1
    1d80:	00001074 	andeq	r1, r0, r4, ror r0

00001d84 <opfunc_func_on>:
    1d84:	e1a0c00d 	mov	ip, sp
    1d88:	e92ddff0 	push	{r4, r5, r6, r7, r8, r9, sl, fp, ip, lr, pc}
    1d8c:	e24cb004 	sub	fp, ip, #4
    1d90:	e24dd02c 	sub	sp, sp, #44	; 0x2c
    1d94:	e5905008 	ldr	r5, [r0, #8]
    1d98:	e1a07000 	mov	r7, r0
    1d9c:	e3550008 	cmp	r5, #8
    1da0:	8a0000ca 	bhi	20d0 <opfunc_func_on+0x34c>
    1da4:	e59f43e4 	ldr	r4, [pc, #996]	; 2190 <opfunc_func_on+0x40c>
    1da8:	e794c105 	ldr	ip, [r4, r5, lsl #2]
    1dac:	e35c0002 	cmp	ip, #2
    1db0:	8a0000d2 	bhi	2100 <opfunc_func_on+0x37c>
    1db4:	0a00006d 	beq	1f70 <opfunc_func_on+0x1ec>
    1db8:	e5943010 	ldr	r3, [r4, #16]
    1dbc:	e3530002 	cmp	r3, #2
    1dc0:	0a000002 	beq	1dd0 <opfunc_func_on+0x4c>
    1dc4:	ebffff76 	bl	1ba4 <opfunc_pwr_on>
    1dc8:	e250c000 	subs	ip, r0, #0
    1dcc:	1a000098 	bne	2034 <opfunc_func_on+0x2b0>
    1dd0:	e3550003 	cmp	r5, #3
    1dd4:	9a00001c 	bls	1e4c <opfunc_func_on+0xc8>
    1dd8:	e3550008 	cmp	r5, #8
    1ddc:	03a03002 	moveq	r3, #2
    1de0:	05843020 	streq	r3, [r4, #32]
    1de4:	e59f33a8 	ldr	r3, [pc, #936]	; 2194 <opfunc_func_on+0x410>
    1de8:	e5933000 	ldr	r3, [r3]
    1dec:	e3530001 	cmp	r3, #1
    1df0:	9a000062 	bls	1f80 <opfunc_func_on+0x1fc>
    1df4:	e5949014 	ldr	r9, [r4, #20]
    1df8:	e3a06000 	mov	r6, #0
    1dfc:	e8944028 	ldm	r4, {r3, r5, lr}
    1e00:	e594c00c 	ldr	ip, [r4, #12]
    1e04:	e5947020 	ldr	r7, [r4, #32]
    1e08:	e5948010 	ldr	r8, [r4, #16]
    1e0c:	e594a018 	ldr	sl, [r4, #24]
    1e10:	e594401c 	ldr	r4, [r4, #28]
    1e14:	e59f037c 	ldr	r0, [pc, #892]	; 2198 <opfunc_func_on+0x414>
    1e18:	e59f137c 	ldr	r1, [pc, #892]	; 219c <opfunc_func_on+0x418>
    1e1c:	e59f237c 	ldr	r2, [pc, #892]	; 21a0 <opfunc_func_on+0x41c>
    1e20:	e88d4020 	stm	sp, {r5, lr}
    1e24:	e58dc008 	str	ip, [sp, #8]
    1e28:	e58d700c 	str	r7, [sp, #12]
    1e2c:	e58d8010 	str	r8, [sp, #16]
    1e30:	e58da014 	str	sl, [sp, #20]
    1e34:	e58d4018 	str	r4, [sp, #24]
    1e38:	e58d901c 	str	r9, [sp, #28]
    1e3c:	ebfffffe 	bl	0 <osal_info_print>
    1e40:	e1a00006 	mov	r0, r6
    1e44:	e24bd028 	sub	sp, fp, #40	; 0x28
    1e48:	e89daff0 	ldm	sp, {r4, r5, r6, r7, r8, r9, sl, fp, sp, pc}
    1e4c:	e59f6350 	ldr	r6, [pc, #848]	; 21a4 <opfunc_func_on+0x420>
    1e50:	e7963105 	ldr	r3, [r6, r5, lsl #2]
    1e54:	e3530000 	cmp	r3, #0
    1e58:	0a00005d 	beq	1fd4 <opfunc_func_on+0x250>
    1e5c:	e593a000 	ldr	sl, [r3]
    1e60:	e35a0000 	cmp	sl, #0
    1e64:	0a00005a 	beq	1fd4 <opfunc_func_on+0x250>
    1e68:	e3550003 	cmp	r5, #3
    1e6c:	0a000045 	beq	1f88 <opfunc_func_on+0x204>
    1e70:	e5946050 	ldr	r6, [r4, #80]	; 0x50
    1e74:	ebfffffe 	bl	0 <wmt_conf_get_cfg>
    1e78:	e59f8310 	ldr	r8, [pc, #784]	; 2190 <opfunc_func_on+0x40c>
    1e7c:	e1a01000 	mov	r1, r0
    1e80:	e1a00006 	mov	r0, r6
    1e84:	e12fff3a 	blx	sl
    1e88:	e2506000 	subs	r6, r0, #0
    1e8c:	03a03002 	moveq	r3, #2
    1e90:	07883105 	streq	r3, [r8, r5, lsl #2]
    1e94:	0affffd2 	beq	1de4 <opfunc_func_on+0x60>
    1e98:	e3550003 	cmp	r5, #3
    1e9c:	0a00007f 	beq	20a0 <opfunc_func_on+0x31c>
    1ea0:	e3a03000 	mov	r3, #0
    1ea4:	e7843105 	str	r3, [r4, r5, lsl #2]
    1ea8:	e59f12f8 	ldr	r1, [pc, #760]	; 21a8 <opfunc_func_on+0x424>
    1eac:	e30024e3 	movw	r2, #1251	; 0x4e3
    1eb0:	e1a03005 	mov	r3, r5
    1eb4:	e59f02f0 	ldr	r0, [pc, #752]	; 21ac <opfunc_func_on+0x428>
    1eb8:	e58d6000 	str	r6, [sp]
    1ebc:	ebfffffe 	bl	0 <osal_err_print>
    1ec0:	e30024e4 	movw	r2, #1252	; 0x4e4
    1ec4:	e59f32e4 	ldr	r3, [pc, #740]	; 21b0 <opfunc_func_on+0x42c>
    1ec8:	e59f02e4 	ldr	r0, [pc, #740]	; 21b4 <opfunc_func_on+0x430>
    1ecc:	e59f12e4 	ldr	r1, [pc, #740]	; 21b8 <opfunc_func_on+0x434>
    1ed0:	ebfffffe 	bl	0 <osal_err_print>
    1ed4:	e5942000 	ldr	r2, [r4]
    1ed8:	e59f32b0 	ldr	r3, [pc, #688]	; 2190 <opfunc_func_on+0x40c>
    1edc:	e3520000 	cmp	r2, #0
    1ee0:	1affffd6 	bne	1e40 <opfunc_func_on+0xbc>
    1ee4:	e5932008 	ldr	r2, [r3, #8]
    1ee8:	e3520000 	cmp	r2, #0
    1eec:	1affffd3 	bne	1e40 <opfunc_func_on+0xbc>
    1ef0:	e5932004 	ldr	r2, [r3, #4]
    1ef4:	e3520000 	cmp	r2, #0
    1ef8:	1affffd0 	bne	1e40 <opfunc_func_on+0xbc>
    1efc:	e593200c 	ldr	r2, [r3, #12]
    1f00:	e3520000 	cmp	r2, #0
    1f04:	1affffcd 	bne	1e40 <opfunc_func_on+0xbc>
    1f08:	e5933020 	ldr	r3, [r3, #32]
    1f0c:	e3530000 	cmp	r3, #0
    1f10:	1affffca 	bne	1e40 <opfunc_func_on+0xbc>
    1f14:	e59f3278 	ldr	r3, [pc, #632]	; 2194 <opfunc_func_on+0x410>
    1f18:	e5933000 	ldr	r3, [r3]
    1f1c:	e3530001 	cmp	r3, #1
    1f20:	9a000003 	bls	1f34 <opfunc_func_on+0x1b0>
    1f24:	e59f0290 	ldr	r0, [pc, #656]	; 21bc <opfunc_func_on+0x438>
    1f28:	e1a02005 	mov	r2, r5
    1f2c:	e59f1274 	ldr	r1, [pc, #628]	; 21a8 <opfunc_func_on+0x424>
    1f30:	ebfffffe 	bl	0 <osal_info_print>
    1f34:	e1a00007 	mov	r0, r7
    1f38:	ebfffb4b 	bl	c6c <opfunc_pwr_off>
    1f3c:	e2503000 	subs	r3, r0, #0
    1f40:	0affffbe 	beq	1e40 <opfunc_func_on+0xbc>
    1f44:	e59f125c 	ldr	r1, [pc, #604]	; 21a8 <opfunc_func_on+0x424>
    1f48:	e3a02e4f 	mov	r2, #1264	; 0x4f0
    1f4c:	e59f026c 	ldr	r0, [pc, #620]	; 21c0 <opfunc_func_on+0x43c>
    1f50:	e58d5000 	str	r5, [sp]
    1f54:	ebfffffe 	bl	0 <osal_err_print>
    1f58:	e59f1258 	ldr	r1, [pc, #600]	; 21b8 <opfunc_func_on+0x434>
    1f5c:	e30024f1 	movw	r2, #1265	; 0x4f1
    1f60:	e59f3248 	ldr	r3, [pc, #584]	; 21b0 <opfunc_func_on+0x42c>
    1f64:	e59f0248 	ldr	r0, [pc, #584]	; 21b4 <opfunc_func_on+0x430>
    1f68:	ebfffffe 	bl	0 <osal_err_print>
    1f6c:	eaffffb3 	b	1e40 <opfunc_func_on+0xbc>
    1f70:	e59f321c 	ldr	r3, [pc, #540]	; 2194 <opfunc_func_on+0x410>
    1f74:	e5933000 	ldr	r3, [r3]
    1f78:	e3530000 	cmp	r3, #0
    1f7c:	1a00000e 	bne	1fbc <opfunc_func_on+0x238>
    1f80:	e3a06000 	mov	r6, #0
    1f84:	eaffffad 	b	1e40 <opfunc_func_on+0xbc>
    1f88:	e5943028 	ldr	r3, [r4, #40]	; 0x28
    1f8c:	e59f81fc 	ldr	r8, [pc, #508]	; 2190 <opfunc_func_on+0x40c>
    1f90:	e3530000 	cmp	r3, #0
    1f94:	0a000033 	beq	2068 <opfunc_func_on+0x2e4>
    1f98:	e3530001 	cmp	r3, #1
    1f9c:	0a000017 	beq	2000 <opfunc_func_on+0x27c>
    1fa0:	e59f021c 	ldr	r0, [pc, #540]	; 21c4 <opfunc_func_on+0x440>
    1fa4:	e30024bc 	movw	r2, #1212	; 0x4bc
    1fa8:	e59f11f8 	ldr	r1, [pc, #504]	; 21a8 <opfunc_func_on+0x424>
    1fac:	ebfffffe 	bl	0 <osal_err_print>
    1fb0:	e596300c 	ldr	r3, [r6, #12]
    1fb4:	e593a000 	ldr	sl, [r3]
    1fb8:	eaffffac 	b	1e70 <opfunc_func_on+0xec>
    1fbc:	e1a02005 	mov	r2, r5
    1fc0:	e59f11e0 	ldr	r1, [pc, #480]	; 21a8 <opfunc_func_on+0x424>
    1fc4:	e59f01fc 	ldr	r0, [pc, #508]	; 21c8 <opfunc_func_on+0x444>
    1fc8:	e3a06000 	mov	r6, #0
    1fcc:	ebfffffe 	bl	0 <osal_warn_print>
    1fd0:	eaffff9a 	b	1e40 <opfunc_func_on+0xbc>
    1fd4:	e59f31b8 	ldr	r3, [pc, #440]	; 2194 <opfunc_func_on+0x410>
    1fd8:	e5933000 	ldr	r3, [r3]
    1fdc:	e3530000 	cmp	r3, #0
    1fe0:	03e06004 	mvneq	r6, #4
    1fe4:	0affffaf 	beq	1ea8 <opfunc_func_on+0x124>
    1fe8:	e1a02005 	mov	r2, r5
    1fec:	e59f11b4 	ldr	r1, [pc, #436]	; 21a8 <opfunc_func_on+0x424>
    1ff0:	e59f01d4 	ldr	r0, [pc, #468]	; 21cc <opfunc_func_on+0x448>
    1ff4:	e3e06004 	mvn	r6, #4
    1ff8:	ebfffffe 	bl	0 <osal_warn_print>
    1ffc:	eaffffa9 	b	1ea8 <opfunc_func_on+0x124>
    2000:	e598301c 	ldr	r3, [r8, #28]
    2004:	e3530002 	cmp	r3, #2
    2008:	1a000055 	bne	2164 <opfunc_func_on+0x3e0>
    200c:	e59f3180 	ldr	r3, [pc, #384]	; 2194 <opfunc_func_on+0x410>
    2010:	e5933000 	ldr	r3, [r3]
    2014:	e3530002 	cmp	r3, #2
    2018:	9affff94 	bls	1e70 <opfunc_func_on+0xec>
    201c:	e59f01ac 	ldr	r0, [pc, #428]	; 21d0 <opfunc_func_on+0x44c>
    2020:	e59f1180 	ldr	r1, [pc, #384]	; 21a8 <opfunc_func_on+0x424>
    2024:	ebfffffe 	bl	0 <osal_dbg_print>
    2028:	e596300c 	ldr	r3, [r6, #12]
    202c:	e593a000 	ldr	sl, [r3]
    2030:	eaffff8e 	b	1e70 <opfunc_func_on+0xec>
    2034:	e1a03005 	mov	r3, r5
    2038:	e59f1168 	ldr	r1, [pc, #360]	; 21a8 <opfunc_func_on+0x424>
    203c:	e3002492 	movw	r2, #1170	; 0x492
    2040:	e59f018c 	ldr	r0, [pc, #396]	; 21d4 <opfunc_func_on+0x450>
    2044:	e58dc000 	str	ip, [sp]
    2048:	ebfffffe 	bl	0 <osal_err_print>
    204c:	e3002493 	movw	r2, #1171	; 0x493
    2050:	e59f1160 	ldr	r1, [pc, #352]	; 21b8 <opfunc_func_on+0x434>
    2054:	e59f3154 	ldr	r3, [pc, #340]	; 21b0 <opfunc_func_on+0x42c>
    2058:	e3e06002 	mvn	r6, #2
    205c:	e59f0150 	ldr	r0, [pc, #336]	; 21b4 <opfunc_func_on+0x430>
    2060:	ebfffffe 	bl	0 <osal_err_print>
    2064:	eaffff75 	b	1e40 <opfunc_func_on+0xbc>
    2068:	e3a0000a 	mov	r0, #10
    206c:	e24b1030 	sub	r1, fp, #48	; 0x30
    2070:	e24b2034 	sub	r2, fp, #52	; 0x34
    2074:	e3a03001 	mov	r3, #1
    2078:	e50b3034 	str	r3, [fp, #-52]	; 0xffffffcc
    207c:	e50b3030 	str	r3, [fp, #-48]	; 0xffffffd0
    2080:	ebfffffe 	bl	3f0 <wmt_core_ctrl>
    2084:	e2503000 	subs	r3, r0, #0
    2088:	1a000029 	bne	2134 <opfunc_func_on+0x3b0>
    208c:	e596300c 	ldr	r3, [r6, #12]
    2090:	e3a02002 	mov	r2, #2
    2094:	e5882018 	str	r2, [r8, #24]
    2098:	e593a000 	ldr	sl, [r3]
    209c:	eaffff73 	b	1e70 <opfunc_func_on+0xec>
    20a0:	e598a028 	ldr	sl, [r8, #40]	; 0x28
    20a4:	e35a0000 	cmp	sl, #0
    20a8:	1affff7c 	bne	1ea0 <opfunc_func_on+0x11c>
    20ac:	e3a0000a 	mov	r0, #10
    20b0:	e24b1030 	sub	r1, fp, #48	; 0x30
    20b4:	e24b2034 	sub	r2, fp, #52	; 0x34
    20b8:	e3a03001 	mov	r3, #1
    20bc:	e50ba034 	str	sl, [fp, #-52]	; 0xffffffcc
    20c0:	e50b3030 	str	r3, [fp, #-48]	; 0xffffffd0
    20c4:	ebfffffe 	bl	3f0 <wmt_core_ctrl>
    20c8:	e588a018 	str	sl, [r8, #24]
    20cc:	eaffff73 	b	1ea0 <opfunc_func_on+0x11c>
    20d0:	e1a03005 	mov	r3, r5
    20d4:	e59f10cc 	ldr	r1, [pc, #204]	; 21a8 <opfunc_func_on+0x424>
    20d8:	e3002478 	movw	r2, #1144	; 0x478
    20dc:	e59f00f4 	ldr	r0, [pc, #244]	; 21d8 <opfunc_func_on+0x454>
    20e0:	ebfffffe 	bl	0 <osal_err_print>
    20e4:	e59f10cc 	ldr	r1, [pc, #204]	; 21b8 <opfunc_func_on+0x434>
    20e8:	e3002479 	movw	r2, #1145	; 0x479
    20ec:	e59f30bc 	ldr	r3, [pc, #188]	; 21b0 <opfunc_func_on+0x42c>
    20f0:	e59f00bc 	ldr	r0, [pc, #188]	; 21b4 <opfunc_func_on+0x430>
    20f4:	e3e06000 	mvn	r6, #0
    20f8:	ebfffffe 	bl	0 <osal_err_print>
    20fc:	eaffff4f 	b	1e40 <opfunc_func_on+0xbc>
    2100:	e1a03005 	mov	r3, r5
    2104:	e59f109c 	ldr	r1, [pc, #156]	; 21a8 <opfunc_func_on+0x424>
    2108:	e3002482 	movw	r2, #1154	; 0x482
    210c:	e59f00c8 	ldr	r0, [pc, #200]	; 21dc <opfunc_func_on+0x458>
    2110:	e58dc000 	str	ip, [sp]
    2114:	ebfffffe 	bl	0 <osal_err_print>
    2118:	e3002483 	movw	r2, #1155	; 0x483
    211c:	e59f1094 	ldr	r1, [pc, #148]	; 21b8 <opfunc_func_on+0x434>
    2120:	e59f3088 	ldr	r3, [pc, #136]	; 21b0 <opfunc_func_on+0x42c>
    2124:	e3e06001 	mvn	r6, #1
    2128:	e59f0084 	ldr	r0, [pc, #132]	; 21b4 <opfunc_func_on+0x430>
    212c:	ebfffffe 	bl	0 <osal_err_print>
    2130:	eaffff42 	b	1e40 <opfunc_func_on+0xbc>
    2134:	e59f106c 	ldr	r1, [pc, #108]	; 21a8 <opfunc_func_on+0x424>
    2138:	e30024a5 	movw	r2, #1189	; 0x4a5
    213c:	e59f009c 	ldr	r0, [pc, #156]	; 21e0 <opfunc_func_on+0x45c>
    2140:	ebfffffe 	bl	0 <osal_err_print>
    2144:	e59f3064 	ldr	r3, [pc, #100]	; 21b0 <opfunc_func_on+0x42c>
    2148:	e59f0064 	ldr	r0, [pc, #100]	; 21b4 <opfunc_func_on+0x430>
    214c:	e30024a6 	movw	r2, #1190	; 0x4a6
    2150:	e59f1060 	ldr	r1, [pc, #96]	; 21b8 <opfunc_func_on+0x434>
    2154:	ebfffffe 	bl	0 <osal_err_print>
    2158:	e596300c 	ldr	r3, [r6, #12]
    215c:	e593a000 	ldr	sl, [r3]
    2160:	eaffff42 	b	1e70 <opfunc_func_on+0xec>
    2164:	e59f103c 	ldr	r1, [pc, #60]	; 21a8 <opfunc_func_on+0x424>
    2168:	e30024b6 	movw	r2, #1206	; 0x4b6
    216c:	e59f0070 	ldr	r0, [pc, #112]	; 21e4 <opfunc_func_on+0x460>
    2170:	e3e06003 	mvn	r6, #3
    2174:	ebfffffe 	bl	0 <osal_err_print>
    2178:	e59f1038 	ldr	r1, [pc, #56]	; 21b8 <opfunc_func_on+0x434>
    217c:	e30024b7 	movw	r2, #1207	; 0x4b7
    2180:	e59f3028 	ldr	r3, [pc, #40]	; 21b0 <opfunc_func_on+0x42c>
    2184:	e59f0028 	ldr	r0, [pc, #40]	; 21b4 <opfunc_func_on+0x430>
    2188:	ebfffffe 	bl	0 <osal_err_print>
    218c:	eaffff2b 	b	1e40 <opfunc_func_on+0xbc>
	...
    2198:	000002b0 			; <UNDEFINED> instruction: 0x000002b0
    219c:	000000d4 	ldrdeq	r0, [r0], -r4
    21a0:	00001330 	andeq	r1, r0, r0, lsr r3
    21a4:	00000000 	andeq	r0, r0, r0
    21a8:	000001d8 	ldrdeq	r0, [r0], -r8
    21ac:	000008b4 			; <UNDEFINED> instruction: 0x000008b4
    21b0:	000002ac 	andeq	r0, r0, ip, lsr #5
    21b4:	0000026c 	andeq	r0, r0, ip, ror #4
    21b8:	0000027c 	andeq	r0, r0, ip, ror r2
    21bc:	000008dc 	ldrdeq	r0, [r0], -ip
    21c0:	00000914 	andeq	r0, r0, r4, lsl r9
    21c4:	000012d4 	ldrdeq	r1, [r0], -r4
    21c8:	0000120c 	andeq	r1, r0, ip, lsl #4
    21cc:	00000888 	andeq	r0, r0, r8, lsl #17
    21d0:	0000125c 	andeq	r1, r0, ip, asr r2
    21d4:	00001230 	andeq	r1, r0, r0, lsr r2
    21d8:	000011b4 			; <UNDEFINED> instruction: 0x000011b4
    21dc:	000011d8 	ldrdeq	r1, [r0], -r8
    21e0:	00000858 	andeq	r0, r0, r8, asr r8
    21e4:	00001284 	andeq	r1, r0, r4, lsl #5

000021e8 <opfunc_reg_rw>:
    21e8:	e1a0c00d 	mov	ip, sp
    21ec:	e92dd800 	push	{fp, ip, lr, pc}
    21f0:	e24cb004 	sub	fp, ip, #4
    21f4:	e59f303c 	ldr	r3, [pc, #60]	; 2238 <opfunc_reg_rw+0x50>
    21f8:	e1a02000 	mov	r2, r0
    21fc:	e5933010 	ldr	r3, [r3, #16]
    2200:	e3530002 	cmp	r3, #2
    2204:	1a000005 	bne	2220 <opfunc_reg_rw+0x38>
    2208:	e5903014 	ldr	r3, [r0, #20]
    220c:	e592100c 	ldr	r1, [r2, #12]
    2210:	e5900008 	ldr	r0, [r0, #8]
    2214:	e5922010 	ldr	r2, [r2, #16]
    2218:	ebfffffe 	bl	131c <wmt_core_reg_rw_raw>
    221c:	e89da800 	ldm	sp, {fp, sp, pc}
    2220:	e59f0014 	ldr	r0, [pc, #20]	; 223c <opfunc_reg_rw+0x54>
    2224:	e3a02e56 	mov	r2, #1376	; 0x560
    2228:	e59f1010 	ldr	r1, [pc, #16]	; 2240 <opfunc_reg_rw+0x58>
    222c:	ebfffffe 	bl	0 <osal_err_print>
    2230:	e3e00000 	mvn	r0, #0
    2234:	e89da800 	ldm	sp, {fp, sp, pc}
    2238:	00000000 	andeq	r0, r0, r0
    223c:	0000133c 	andeq	r1, r0, ip, lsr r3
    2240:	000001e8 	andeq	r0, r0, r8, ror #3

00002244 <opfunc_efuse_rw>:
    2244:	e1a0c00d 	mov	ip, sp
    2248:	e92dd9f0 	push	{r4, r5, r6, r7, r8, fp, ip, lr, pc}
    224c:	e24cb004 	sub	fp, ip, #4
    2250:	e24dd024 	sub	sp, sp, #36	; 0x24
    2254:	e59f213c 	ldr	r2, [pc, #316]	; 2398 <opfunc_efuse_rw+0x154>
    2258:	e24b5038 	sub	r5, fp, #56	; 0x38
    225c:	e2853004 	add	r3, r5, #4
    2260:	e3a04000 	mov	r4, #0
    2264:	e1a08000 	mov	r8, r0
    2268:	e50b4038 	str	r4, [fp, #-56]	; 0xffffffc8
    226c:	e5922010 	ldr	r2, [r2, #16]
    2270:	e4834004 	str	r4, [r3], #4
    2274:	e3520002 	cmp	r2, #2
    2278:	e4834004 	str	r4, [r3], #4
    227c:	e5834000 	str	r4, [r3]
    2280:	1a00003e 	bne	2380 <opfunc_efuse_rw+0x13c>
    2284:	e5903008 	ldr	r3, [r0, #8]
    2288:	e280100c 	add	r1, r0, #12
    228c:	e59f7108 	ldr	r7, [pc, #264]	; 239c <opfunc_efuse_rw+0x158>
    2290:	e24b6028 	sub	r6, fp, #40	; 0x28
    2294:	e3530000 	cmp	r3, #0
    2298:	e287002a 	add	r0, r7, #42	; 0x2a
    229c:	13a03001 	movne	r3, #1
    22a0:	03a03002 	moveq	r3, #2
    22a4:	e5c73028 	strb	r3, [r7, #40]	; 0x28
    22a8:	ebfffffe 	bl	0 <osal_memcpy>
    22ac:	e5981010 	ldr	r1, [r8, #16]
    22b0:	e3a02004 	mov	r2, #4
    22b4:	e287002c 	add	r0, r7, #44	; 0x2c
    22b8:	ebfffffe 	bl	0 <osal_memcpy>
    22bc:	e2870024 	add	r0, r7, #36	; 0x24
    22c0:	e59f10d8 	ldr	r1, [pc, #216]	; 23a0 <opfunc_efuse_rw+0x15c>
    22c4:	e3a0200c 	mov	r2, #12
    22c8:	ebfffffe 	bl	17c <wmt_core_dump_data>
    22cc:	e1a03004 	mov	r3, r4
    22d0:	e2870024 	add	r0, r7, #36	; 0x24
    22d4:	e3a0100c 	mov	r1, #12
    22d8:	e1a02006 	mov	r2, r6
    22dc:	ebfffffe 	bl	10e4 <wmt_core_tx>
    22e0:	e2504000 	subs	r4, r0, #0
    22e4:	151bc028 	ldrne	ip, [fp, #-40]	; 0xffffffd8
    22e8:	1a000002 	bne	22f8 <opfunc_efuse_rw+0xb4>
    22ec:	e51bc028 	ldr	ip, [fp, #-40]	; 0xffffffd8
    22f0:	e35c000c 	cmp	ip, #12
    22f4:	0a00000a 	beq	2324 <opfunc_efuse_rw+0xe0>
    22f8:	e59f10a4 	ldr	r1, [pc, #164]	; 23a4 <opfunc_efuse_rw+0x160>
    22fc:	e30027d8 	movw	r2, #2008	; 0x7d8
    2300:	e1a03004 	mov	r3, r4
    2304:	e59f009c 	ldr	r0, [pc, #156]	; 23a8 <opfunc_efuse_rw+0x164>
    2308:	e58dc000 	str	ip, [sp]
    230c:	e3a0c00c 	mov	ip, #12
    2310:	e58dc004 	str	ip, [sp, #4]
    2314:	ebfffffe 	bl	0 <osal_err_print>
    2318:	e1a00004 	mov	r0, r4
    231c:	e24bd020 	sub	sp, fp, #32
    2320:	e89da9f0 	ldm	sp, {r4, r5, r6, r7, r8, fp, sp, pc}
    2324:	e1a0100c 	mov	r1, ip
    2328:	e1a02006 	mov	r2, r6
    232c:	e1a00005 	mov	r0, r5
    2330:	ebfffffe 	bl	8b4 <wmt_core_rx>
    2334:	e2504000 	subs	r4, r0, #0
    2338:	151bc028 	ldrne	ip, [fp, #-40]	; 0xffffffd8
    233c:	1a000002 	bne	234c <opfunc_efuse_rw+0x108>
    2340:	e51bc028 	ldr	ip, [fp, #-40]	; 0xffffffd8
    2344:	e35c000c 	cmp	ip, #12
    2348:	0a000007 	beq	236c <opfunc_efuse_rw+0x128>
    234c:	e59f0058 	ldr	r0, [pc, #88]	; 23ac <opfunc_efuse_rw+0x168>
    2350:	e3a02e7e 	mov	r2, #2016	; 0x7e0
    2354:	e59f1048 	ldr	r1, [pc, #72]	; 23a4 <opfunc_efuse_rw+0x160>
    2358:	e1a03004 	mov	r3, r4
    235c:	e58dc000 	str	ip, [sp]
    2360:	e3a0c00c 	mov	ip, #12
    2364:	e58dc004 	str	ip, [sp, #4]
    2368:	ebfffffe 	bl	0 <osal_err_print>
    236c:	e1a00005 	mov	r0, r5
    2370:	e59f1038 	ldr	r1, [pc, #56]	; 23b0 <opfunc_efuse_rw+0x16c>
    2374:	e3a02010 	mov	r2, #16
    2378:	ebfffffe 	bl	17c <wmt_core_dump_data>
    237c:	eaffffe5 	b	2318 <opfunc_efuse_rw+0xd4>
    2380:	e30027ca 	movw	r2, #1994	; 0x7ca
    2384:	e59f1018 	ldr	r1, [pc, #24]	; 23a4 <opfunc_efuse_rw+0x160>
    2388:	e59f0024 	ldr	r0, [pc, #36]	; 23b4 <opfunc_efuse_rw+0x170>
    238c:	e3e04000 	mvn	r4, #0
    2390:	ebfffffe 	bl	0 <osal_err_print>
    2394:	eaffffdf 	b	2318 <opfunc_efuse_rw+0xd4>
	...
    23a0:	00001370 	andeq	r1, r0, r0, ror r3
    23a4:	000001f8 	strdeq	r0, [r0], -r8
    23a8:	0000137c 	andeq	r1, r0, ip, ror r3
    23ac:	000013b8 			; <UNDEFINED> instruction: 0x000013b8
    23b0:	000013f0 	strdeq	r1, [r0], -r0
    23b4:	00000104 	andeq	r0, r0, r4, lsl #2

000023b8 <opfunc_therm_ctrl>:
    23b8:	e1a0c00d 	mov	ip, sp
    23bc:	e92ddff0 	push	{r4, r5, r6, r7, r8, r9, sl, fp, ip, lr, pc}
    23c0:	e24cb004 	sub	fp, ip, #4
    23c4:	e24dd04c 	sub	sp, sp, #76	; 0x4c
    23c8:	e59f525c 	ldr	r5, [pc, #604]	; 262c <opfunc_therm_ctrl+0x274>
    23cc:	e24b8040 	sub	r8, fp, #64	; 0x40
    23d0:	e5904008 	ldr	r4, [r0, #8]
    23d4:	e288c004 	add	ip, r8, #4
    23d8:	e3a0e000 	mov	lr, #0
    23dc:	e24ba030 	sub	sl, fp, #48	; 0x30
    23e0:	e48ce004 	str	lr, [ip], #4
    23e4:	e1a06000 	mov	r6, r0
    23e8:	e5c54034 	strb	r4, [r5, #52]	; 0x34
    23ec:	e1a0300e 	mov	r3, lr
    23f0:	e48ce004 	str	lr, [ip], #4
    23f4:	e2850030 	add	r0, r5, #48	; 0x30
    23f8:	e3a01005 	mov	r1, #5
    23fc:	e1a0200a 	mov	r2, sl
    2400:	e58ce000 	str	lr, [ip]
    2404:	e50be040 	str	lr, [fp, #-64]	; 0xffffffc0
    2408:	ebfffffe 	bl	10e4 <wmt_core_tx>
    240c:	e2504000 	subs	r4, r0, #0
    2410:	151b7030 	ldrne	r7, [fp, #-48]	; 0xffffffd0
    2414:	1a000002 	bne	2424 <opfunc_therm_ctrl+0x6c>
    2418:	e51b7030 	ldr	r7, [fp, #-48]	; 0xffffffd0
    241c:	e3570005 	cmp	r7, #5
    2420:	0a000009 	beq	244c <opfunc_therm_ctrl+0x94>
    2424:	e59f1204 	ldr	r1, [pc, #516]	; 2630 <opfunc_therm_ctrl+0x278>
    2428:	e3002793 	movw	r2, #1939	; 0x793
    242c:	e1a03004 	mov	r3, r4
    2430:	e59f01fc 	ldr	r0, [pc, #508]	; 2634 <opfunc_therm_ctrl+0x27c>
    2434:	e3a0c005 	mov	ip, #5
    2438:	e88d1080 	stm	sp, {r7, ip}
    243c:	ebfffffe 	bl	0 <osal_err_print>
    2440:	e1a00004 	mov	r0, r4
    2444:	e24bd028 	sub	sp, fp, #40	; 0x28
    2448:	e89daff0 	ldm	sp, {r4, r5, r6, r7, r8, r9, sl, fp, sp, pc}
    244c:	e1a0200a 	mov	r2, sl
    2450:	e1a00008 	mov	r0, r8
    2454:	e3a01010 	mov	r1, #16
    2458:	ebfffffe 	bl	8b4 <wmt_core_rx>
    245c:	e2504000 	subs	r4, r0, #0
    2460:	151ba030 	ldrne	sl, [fp, #-48]	; 0xffffffd0
    2464:	1a000003 	bne	2478 <opfunc_therm_ctrl+0xc0>
    2468:	e51ba030 	ldr	sl, [fp, #-48]	; 0xffffffd0
    246c:	e24a3005 	sub	r3, sl, #5
    2470:	e3530001 	cmp	r3, #1
    2474:	9a000008 	bls	249c <opfunc_therm_ctrl+0xe4>
    2478:	e59f11b0 	ldr	r1, [pc, #432]	; 2630 <opfunc_therm_ctrl+0x278>
    247c:	e300279b 	movw	r2, #1947	; 0x79b
    2480:	e1a03004 	mov	r3, r4
    2484:	e59f01ac 	ldr	r0, [pc, #428]	; 2638 <opfunc_therm_ctrl+0x280>
    2488:	e3a0c010 	mov	ip, #16
    248c:	e88d1400 	stm	sp, {sl, ip}
    2490:	ebfffffe 	bl	0 <osal_err_print>
    2494:	ebfffffe 	bl	0 <mtk_wcn_stp_dbg_dump_package>
    2498:	eaffffe8 	b	2440 <opfunc_therm_ctrl+0x88>
    249c:	e35a0005 	cmp	sl, #5
    24a0:	0a00000f 	beq	24e4 <opfunc_therm_ctrl+0x12c>
    24a4:	e1a00008 	mov	r0, r8
    24a8:	e1a02007 	mov	r2, r7
    24ac:	e2851040 	add	r1, r5, #64	; 0x40
    24b0:	ebfffffe 	bl	0 <osal_memcmp>
    24b4:	e3500000 	cmp	r0, #0
    24b8:	1a000019 	bne	2524 <opfunc_therm_ctrl+0x16c>
    24bc:	e59f3178 	ldr	r3, [pc, #376]	; 263c <opfunc_therm_ctrl+0x284>
    24c0:	e5933000 	ldr	r3, [r3]
    24c4:	e3530001 	cmp	r3, #1
    24c8:	9a000002 	bls	24d8 <opfunc_therm_ctrl+0x120>
    24cc:	e59f016c 	ldr	r0, [pc, #364]	; 2640 <opfunc_therm_ctrl+0x288>
    24d0:	e59f1158 	ldr	r1, [pc, #344]	; 2630 <opfunc_therm_ctrl+0x278>
    24d4:	ebfffffe 	bl	0 <osal_info_print>
    24d8:	e55b303b 	ldrb	r3, [fp, #-59]	; 0xffffffc5
    24dc:	e586300c 	str	r3, [r6, #12]
    24e0:	eaffffd6 	b	2440 <opfunc_therm_ctrl+0x88>
    24e4:	e1a00008 	mov	r0, r8
    24e8:	e2851038 	add	r1, r5, #56	; 0x38
    24ec:	e1a0200a 	mov	r2, sl
    24f0:	ebfffffe 	bl	0 <osal_memcmp>
    24f4:	e3500000 	cmp	r0, #0
    24f8:	1a00002c 	bne	25b0 <opfunc_therm_ctrl+0x1f8>
    24fc:	e59f3138 	ldr	r3, [pc, #312]	; 263c <opfunc_therm_ctrl+0x284>
    2500:	e5933000 	ldr	r3, [r3]
    2504:	e3530001 	cmp	r3, #1
    2508:	9a000002 	bls	2518 <opfunc_therm_ctrl+0x160>
    250c:	e59f0130 	ldr	r0, [pc, #304]	; 2644 <opfunc_therm_ctrl+0x28c>
    2510:	e59f1118 	ldr	r1, [pc, #280]	; 2630 <opfunc_therm_ctrl+0x278>
    2514:	ebfffffe 	bl	0 <osal_info_print>
    2518:	e3a03001 	mov	r3, #1
    251c:	e586300c 	str	r3, [r6, #12]
    2520:	eaffffc6 	b	2440 <opfunc_therm_ctrl+0x88>
    2524:	e59f1104 	ldr	r1, [pc, #260]	; 2630 <opfunc_therm_ctrl+0x278>
    2528:	e30027b1 	movw	r2, #1969	; 0x7b1
    252c:	e59f0114 	ldr	r0, [pc, #276]	; 2648 <opfunc_therm_ctrl+0x290>
    2530:	ebfffffe 	bl	0 <osal_err_print>
    2534:	e5d53043 	ldrb	r3, [r5, #67]	; 0x43
    2538:	e55bc03f 	ldrb	ip, [fp, #-63]	; 0xffffffc1
    253c:	e30027b4 	movw	r2, #1972	; 0x7b4
    2540:	e55be040 	ldrb	lr, [fp, #-64]	; 0xffffffc0
    2544:	e58d3028 	str	r3, [sp, #40]	; 0x28
    2548:	e5d51040 	ldrb	r1, [r5, #64]	; 0x40
    254c:	e55b703e 	ldrb	r7, [fp, #-62]	; 0xffffffc2
    2550:	e55b803d 	ldrb	r8, [fp, #-61]	; 0xffffffc3
    2554:	e58d101c 	str	r1, [sp, #28]
    2558:	e5d51041 	ldrb	r1, [r5, #65]	; 0x41
    255c:	e55ba03c 	ldrb	sl, [fp, #-60]	; 0xffffffc4
    2560:	e55b903b 	ldrb	r9, [fp, #-59]	; 0xffffffc5
    2564:	e58d1020 	str	r1, [sp, #32]
    2568:	e5d55042 	ldrb	r5, [r5, #66]	; 0x42
    256c:	e51b3030 	ldr	r3, [fp, #-48]	; 0xffffffd0
    2570:	e59f10b8 	ldr	r1, [pc, #184]	; 2630 <opfunc_therm_ctrl+0x278>
    2574:	e59f00d0 	ldr	r0, [pc, #208]	; 264c <opfunc_therm_ctrl+0x294>
    2578:	e58dc004 	str	ip, [sp, #4]
    257c:	e3a0c006 	mov	ip, #6
    2580:	e58de000 	str	lr, [sp]
    2584:	e58d7008 	str	r7, [sp, #8]
    2588:	e58d800c 	str	r8, [sp, #12]
    258c:	e58da010 	str	sl, [sp, #16]
    2590:	e58d9014 	str	r9, [sp, #20]
    2594:	e58dc018 	str	ip, [sp, #24]
    2598:	e58d5024 	str	r5, [sp, #36]	; 0x24
    259c:	ebfffffe 	bl	0 <osal_err_print>
    25a0:	e3a030ff 	mov	r3, #255	; 0xff
    25a4:	e586300c 	str	r3, [r6, #12]
    25a8:	ebfffffe 	bl	0 <mtk_wcn_stp_dbg_dump_package>
    25ac:	eaffffa3 	b	2440 <opfunc_therm_ctrl+0x88>
    25b0:	e59f1078 	ldr	r1, [pc, #120]	; 2630 <opfunc_therm_ctrl+0x278>
    25b4:	e30027a2 	movw	r2, #1954	; 0x7a2
    25b8:	e59f0090 	ldr	r0, [pc, #144]	; 2650 <opfunc_therm_ctrl+0x298>
    25bc:	ebfffffe 	bl	0 <osal_err_print>
    25c0:	e5d5103c 	ldrb	r1, [r5, #60]	; 0x3c
    25c4:	e55bc040 	ldrb	ip, [fp, #-64]	; 0xffffffc0
    25c8:	e30027a5 	movw	r2, #1957	; 0x7a5
    25cc:	e55b703f 	ldrb	r7, [fp, #-63]	; 0xffffffc1
    25d0:	e58d1028 	str	r1, [sp, #40]	; 0x28
    25d4:	e55b103c 	ldrb	r1, [fp, #-60]	; 0xffffffc4
    25d8:	e55b803e 	ldrb	r8, [fp, #-62]	; 0xffffffc2
    25dc:	e55b903d 	ldrb	r9, [fp, #-61]	; 0xffffffc3
    25e0:	e58d1010 	str	r1, [sp, #16]
    25e4:	e5d51038 	ldrb	r1, [r5, #56]	; 0x38
    25e8:	e51b3030 	ldr	r3, [fp, #-48]	; 0xffffffd0
    25ec:	e59f0060 	ldr	r0, [pc, #96]	; 2654 <opfunc_therm_ctrl+0x29c>
    25f0:	e58d1018 	str	r1, [sp, #24]
    25f4:	e5d51039 	ldrb	r1, [r5, #57]	; 0x39
    25f8:	e58d101c 	str	r1, [sp, #28]
    25fc:	e5d5103a 	ldrb	r1, [r5, #58]	; 0x3a
    2600:	e58d1020 	str	r1, [sp, #32]
    2604:	e5d5e03b 	ldrb	lr, [r5, #59]	; 0x3b
    2608:	e59f1020 	ldr	r1, [pc, #32]	; 2630 <opfunc_therm_ctrl+0x278>
    260c:	e58dc000 	str	ip, [sp]
    2610:	e98d0380 	stmib	sp, {r7, r8, r9}
    2614:	e58da014 	str	sl, [sp, #20]
    2618:	e58de024 	str	lr, [sp, #36]	; 0x24
    261c:	ebfffffe 	bl	0 <osal_err_print>
    2620:	e586400c 	str	r4, [r6, #12]
    2624:	ebfffffe 	bl	0 <mtk_wcn_stp_dbg_dump_package>
    2628:	eaffff84 	b	2440 <opfunc_therm_ctrl+0x88>
    262c:	00000000 	andeq	r0, r0, r0
    2630:	00000208 	andeq	r0, r0, r8, lsl #4
    2634:	000013fc 	strdeq	r1, [r0], -ip
    2638:	0000143c 	andeq	r1, r0, ip, lsr r4
    263c:	00000000 	andeq	r0, r0, r0
    2640:	0000157c 	andeq	r1, r0, ip, ror r5
    2644:	000014bc 			; <UNDEFINED> instruction: 0x000014bc
    2648:	000014f0 	strdeq	r1, [r0], -r0
    264c:	00001524 	andeq	r1, r0, r4, lsr #10
    2650:	00001488 	andeq	r1, r0, r8, lsl #9
    2654:	00000a30 	andeq	r0, r0, r0, lsr sl

00002658 <opfunc_cmd_test>:
    2658:	e1a0c00d 	mov	ip, sp
    265c:	e92ddff0 	push	{r4, r5, r6, r7, r8, r9, sl, fp, ip, lr, pc}
    2660:	e24cb004 	sub	fp, ip, #4
    2664:	e24ddf4f 	sub	sp, sp, #316	; 0x13c
    2668:	e59fc3f0 	ldr	ip, [pc, #1008]	; 2a60 <opfunc_cmd_test+0x408>
    266c:	e24ba038 	sub	sl, fp, #56	; 0x38
    2670:	e50b0148 	str	r0, [fp, #-328]	; 0xfffffeb8
    2674:	e24b9040 	sub	r9, fp, #64	; 0x40
    2678:	e28c3008 	add	r3, ip, #8
    267c:	e28c8010 	add	r8, ip, #16
    2680:	e89c0003 	ldm	ip, {r0, r1}
    2684:	e28c6018 	add	r6, ip, #24
    2688:	e28c4020 	add	r4, ip, #32
    268c:	e28c2028 	add	r2, ip, #40	; 0x28
    2690:	e28ce034 	add	lr, ip, #52	; 0x34
    2694:	e24b7070 	sub	r7, fp, #112	; 0x70
    2698:	e50b0038 	str	r0, [fp, #-56]	; 0xffffffc8
    269c:	e5ca1004 	strb	r1, [sl, #4]
    26a0:	e8930003 	ldm	r3, {r0, r1}
    26a4:	e24b3064 	sub	r3, fp, #100	; 0x64
    26a8:	e50b3158 	str	r3, [fp, #-344]	; 0xfffffea8
    26ac:	e24b3080 	sub	r3, fp, #128	; 0x80
    26b0:	e50b315c 	str	r3, [fp, #-348]	; 0xfffffea4
    26b4:	e50b0040 	str	r0, [fp, #-64]	; 0xffffffc0
    26b8:	e5c91004 	strb	r1, [r9, #4]
    26bc:	e8980003 	ldm	r8, {r0, r1}
    26c0:	e59f539c 	ldr	r5, [pc, #924]	; 2a64 <opfunc_cmd_test+0x40c>
    26c4:	e50b0048 	str	r0, [fp, #-72]	; 0xffffffb8
    26c8:	e54b1044 	strb	r1, [fp, #-68]	; 0xffffffbc
    26cc:	e8960003 	ldm	r6, {r0, r1}
    26d0:	e50b0050 	str	r0, [fp, #-80]	; 0xffffffb0
    26d4:	e54b104c 	strb	r1, [fp, #-76]	; 0xffffffb4
    26d8:	e8940003 	ldm	r4, {r0, r1}
    26dc:	e51b4158 	ldr	r4, [fp, #-344]	; 0xfffffea8
    26e0:	e50b0058 	str	r0, [fp, #-88]	; 0xffffffa8
    26e4:	e14b15b4 	strh	r1, [fp, #-84]	; 0xffffffac
    26e8:	e8920007 	ldm	r2, {r0, r1, r2}
    26ec:	e8a40003 	stmia	r4!, {r0, r1}
    26f0:	e5c42000 	strb	r2, [r4]
    26f4:	e89e0007 	ldm	lr, {r0, r1, r2}
    26f8:	e59f4368 	ldr	r4, [pc, #872]	; 2a68 <opfunc_cmd_test+0x410>
    26fc:	e1a0e822 	lsr	lr, r2, #16
    2700:	e5c7e00a 	strb	lr, [r7, #10]
    2704:	e1a0e007 	mov	lr, r7
    2708:	e8ae0003 	stmia	lr!, {r0, r1}
    270c:	e1ce20b0 	strh	r2, [lr]
    2710:	e894000f 	ldm	r4, {r0, r1, r2, r3}
    2714:	e51be15c 	ldr	lr, [fp, #-348]	; 0xfffffea4
    2718:	e8ae0007 	stmia	lr!, {r0, r1, r2}
    271c:	e1a0200e 	mov	r2, lr
    2720:	e595e000 	ldr	lr, [r5]
    2724:	e5c23000 	strb	r3, [r2]
    2728:	e51b2148 	ldr	r2, [fp, #-328]	; 0xfffffeb8
    272c:	e35e0001 	cmp	lr, #1
    2730:	e5924008 	ldr	r4, [r2, #8]
    2734:	9a000003 	bls	2748 <opfunc_cmd_test+0xf0>
    2738:	e28c1050 	add	r1, ip, #80	; 0x50
    273c:	e59f0328 	ldr	r0, [pc, #808]	; 2a6c <opfunc_cmd_test+0x414>
    2740:	e1a02004 	mov	r2, r4
    2744:	ebfffffe 	bl	0 <osal_info_print>
    2748:	e3540000 	cmp	r4, #0
    274c:	1a00002c 	bne	2804 <opfunc_cmd_test+0x1ac>
    2750:	e5953000 	ldr	r3, [r5]
    2754:	e3530001 	cmp	r3, #1
    2758:	9a000002 	bls	2768 <opfunc_cmd_test+0x110>
    275c:	e59f030c 	ldr	r0, [pc, #780]	; 2a70 <opfunc_cmd_test+0x418>
    2760:	e59f130c 	ldr	r1, [pc, #780]	; 2a74 <opfunc_cmd_test+0x41c>
    2764:	ebfffffe 	bl	0 <osal_info_print>
    2768:	e24b80c0 	sub	r8, fp, #192	; 0xc0
    276c:	e1a0100a 	mov	r1, sl
    2770:	e3a02005 	mov	r2, #5
    2774:	e1a00008 	mov	r0, r8
    2778:	ebfffffe 	bl	0 <osal_memcpy>
    277c:	e1a01009 	mov	r1, r9
    2780:	e3a02005 	mov	r2, #5
    2784:	e24b0c01 	sub	r0, fp, #256	; 0x100
    2788:	e1a09002 	mov	r9, r2
    278c:	e3a06000 	mov	r6, #0
    2790:	e1a07009 	mov	r7, r9
    2794:	ebfffffe 	bl	0 <osal_memcpy>
    2798:	e50b6150 	str	r6, [fp, #-336]	; 0xfffffeb0
    279c:	e50b614c 	str	r6, [fp, #-332]	; 0xfffffeb4
    27a0:	e24ba030 	sub	sl, fp, #48	; 0x30
    27a4:	e1a00008 	mov	r0, r8
    27a8:	e1a01007 	mov	r1, r7
    27ac:	e1a0200a 	mov	r2, sl
    27b0:	e3a03000 	mov	r3, #0
    27b4:	ebfffffe 	bl	10e4 <wmt_core_tx>
    27b8:	e2508000 	subs	r8, r0, #0
    27bc:	151bc030 	ldrne	ip, [fp, #-48]	; 0xffffffd0
    27c0:	1a000051 	bne	290c <opfunc_cmd_test+0x2b4>
    27c4:	e51bc030 	ldr	ip, [fp, #-48]	; 0xffffffd0
    27c8:	e15c0007 	cmp	ip, r7
    27cc:	1a00004e 	bne	290c <opfunc_cmd_test+0x2b4>
    27d0:	e3540001 	cmp	r4, #1
    27d4:	9a000015 	bls	2830 <opfunc_cmd_test+0x1d8>
    27d8:	e24b7d05 	sub	r7, fp, #320	; 0x140
    27dc:	e1a0200a 	mov	r2, sl
    27e0:	e1a00007 	mov	r0, r7
    27e4:	e1a01009 	mov	r1, r9
    27e8:	ebfffffe 	bl	8b4 <wmt_core_rx>
    27ec:	e3540002 	cmp	r4, #2
    27f0:	e1a08000 	mov	r8, r0
    27f4:	0a000021 	beq	2880 <opfunc_cmd_test+0x228>
    27f8:	e1a00008 	mov	r0, r8
    27fc:	e24bd028 	sub	sp, fp, #40	; 0x28
    2800:	e89daff0 	ldm	sp, {r4, r5, r6, r7, r8, r9, sl, fp, sp, pc}
    2804:	e3540001 	cmp	r4, #1
    2808:	0a00000f 	beq	284c <opfunc_cmd_test+0x1f4>
    280c:	e3540002 	cmp	r4, #2
    2810:	0a000046 	beq	2930 <opfunc_cmd_test+0x2d8>
    2814:	e3a06000 	mov	r6, #0
    2818:	e24b80c0 	sub	r8, fp, #192	; 0xc0
    281c:	e50b6150 	str	r6, [fp, #-336]	; 0xfffffeb0
    2820:	e1a09006 	mov	r9, r6
    2824:	e1a07006 	mov	r7, r6
    2828:	e50b614c 	str	r6, [fp, #-332]	; 0xfffffeb4
    282c:	eaffffdb 	b	27a0 <opfunc_cmd_test+0x148>
    2830:	e5953000 	ldr	r3, [r5]
    2834:	e3530001 	cmp	r3, #1
    2838:	9affffee 	bls	27f8 <opfunc_cmd_test+0x1a0>
    283c:	e59f1230 	ldr	r1, [pc, #560]	; 2a74 <opfunc_cmd_test+0x41c>
    2840:	e59f0230 	ldr	r0, [pc, #560]	; 2a78 <opfunc_cmd_test+0x420>
    2844:	ebfffffe 	bl	0 <osal_info_print>
    2848:	eaffffea 	b	27f8 <opfunc_cmd_test+0x1a0>
    284c:	e5953000 	ldr	r3, [r5]
    2850:	e3530001 	cmp	r3, #1
    2854:	9a000002 	bls	2864 <opfunc_cmd_test+0x20c>
    2858:	e59f021c 	ldr	r0, [pc, #540]	; 2a7c <opfunc_cmd_test+0x424>
    285c:	e59f1210 	ldr	r1, [pc, #528]	; 2a74 <opfunc_cmd_test+0x41c>
    2860:	ebfffffe 	bl	0 <osal_info_print>
    2864:	e24b80c0 	sub	r8, fp, #192	; 0xc0
    2868:	e24b1048 	sub	r1, fp, #72	; 0x48
    286c:	e3a02005 	mov	r2, #5
    2870:	e1a00008 	mov	r0, r8
    2874:	ebfffffe 	bl	0 <osal_memcpy>
    2878:	e24b1050 	sub	r1, fp, #80	; 0x50
    287c:	eaffffbf 	b	2780 <opfunc_cmd_test+0x128>
    2880:	e5953000 	ldr	r3, [r5]
    2884:	e3530001 	cmp	r3, #1
    2888:	9a00000a 	bls	28b8 <opfunc_cmd_test+0x260>
    288c:	e59f01ec 	ldr	r0, [pc, #492]	; 2a80 <opfunc_cmd_test+0x428>
    2890:	e59f11dc 	ldr	r1, [pc, #476]	; 2a74 <opfunc_cmd_test+0x41c>
    2894:	ebfffffe 	bl	0 <osal_info_print>
    2898:	e59f31c4 	ldr	r3, [pc, #452]	; 2a64 <opfunc_cmd_test+0x40c>
    289c:	e5933000 	ldr	r3, [r3]
    28a0:	e3530001 	cmp	r3, #1
    28a4:	9a000003 	bls	28b8 <opfunc_cmd_test+0x260>
    28a8:	e51b214c 	ldr	r2, [fp, #-332]	; 0xfffffeb4
    28ac:	e59f01d0 	ldr	r0, [pc, #464]	; 2a84 <opfunc_cmd_test+0x42c>
    28b0:	e59f11bc 	ldr	r1, [pc, #444]	; 2a74 <opfunc_cmd_test+0x41c>
    28b4:	ebfffffe 	bl	0 <osal_info_print>
    28b8:	e3590005 	cmp	r9, #5
    28bc:	9a000045 	bls	29d8 <opfunc_cmd_test+0x380>
    28c0:	e2870005 	add	r0, r7, #5
    28c4:	e59f11bc 	ldr	r1, [pc, #444]	; 2a88 <opfunc_cmd_test+0x430>
    28c8:	e2492005 	sub	r2, r9, #5
    28cc:	ebfffffe 	bl	17c <wmt_core_dump_data>
    28d0:	e51b4150 	ldr	r4, [fp, #-336]	; 0xfffffeb0
    28d4:	e3560000 	cmp	r6, #0
    28d8:	13540000 	cmpne	r4, #0
    28dc:	03a03000 	moveq	r3, #0
    28e0:	13a03001 	movne	r3, #1
    28e4:	1a000040 	bne	29ec <opfunc_cmd_test+0x394>
    28e8:	e51b2148 	ldr	r2, [fp, #-328]	; 0xfffffeb8
    28ec:	e5823014 	str	r3, [r2, #20]
    28f0:	e5953000 	ldr	r3, [r5]
    28f4:	e3530001 	cmp	r3, #1
    28f8:	9affffbe 	bls	27f8 <opfunc_cmd_test+0x1a0>
    28fc:	e59f1170 	ldr	r1, [pc, #368]	; 2a74 <opfunc_cmd_test+0x41c>
    2900:	e59f0178 	ldr	r0, [pc, #376]	; 2a80 <opfunc_cmd_test+0x428>
    2904:	ebfffffe 	bl	0 <osal_info_print>
    2908:	eaffffba 	b	27f8 <opfunc_cmd_test+0x1a0>
    290c:	e1a03008 	mov	r3, r8
    2910:	e59f115c 	ldr	r1, [pc, #348]	; 2a74 <opfunc_cmd_test+0x41c>
    2914:	e30026d3 	movw	r2, #1747	; 0x6d3
    2918:	e59f016c 	ldr	r0, [pc, #364]	; 2a8c <opfunc_cmd_test+0x434>
    291c:	e58dc000 	str	ip, [sp]
    2920:	e3e08000 	mvn	r8, #0
    2924:	e58d7004 	str	r7, [sp, #4]
    2928:	ebfffffe 	bl	0 <osal_err_print>
    292c:	eaffffb1 	b	27f8 <opfunc_cmd_test+0x1a0>
    2930:	e51b3148 	ldr	r3, [fp, #-328]	; 0xfffffeb8
    2934:	e51be148 	ldr	lr, [fp, #-328]	; 0xfffffeb8
    2938:	e51b2148 	ldr	r2, [fp, #-328]	; 0xfffffeb8
    293c:	e593300c 	ldr	r3, [r3, #12]
    2940:	e353000f 	cmp	r3, #15
    2944:	e50b314c 	str	r3, [fp, #-332]	; 0xfffffeb4
    2948:	e59ee010 	ldr	lr, [lr, #16]
    294c:	e50be150 	str	lr, [fp, #-336]	; 0xfffffeb0
    2950:	e5926014 	ldr	r6, [r2, #20]
    2954:	8a00003b 	bhi	2a48 <opfunc_cmd_test+0x3f0>
    2958:	e5953000 	ldr	r3, [r5]
    295c:	e3530001 	cmp	r3, #1
    2960:	9a000003 	bls	2974 <opfunc_cmd_test+0x31c>
    2964:	e59f0124 	ldr	r0, [pc, #292]	; 2a90 <opfunc_cmd_test+0x438>
    2968:	e51b214c 	ldr	r2, [fp, #-332]	; 0xfffffeb4
    296c:	e59f1100 	ldr	r1, [pc, #256]	; 2a74 <opfunc_cmd_test+0x41c>
    2970:	ebfffffe 	bl	0 <osal_info_print>
    2974:	e24b80c0 	sub	r8, fp, #192	; 0xc0
    2978:	e24b1058 	sub	r1, fp, #88	; 0x58
    297c:	e1a00008 	mov	r0, r8
    2980:	e3a02006 	mov	r2, #6
    2984:	ebfffffe 	bl	0 <osal_memcpy>
    2988:	e51b314c 	ldr	r3, [fp, #-332]	; 0xfffffeb4
    298c:	e3530004 	cmp	r3, #4
    2990:	e54b30bb 	strb	r3, [fp, #-187]	; 0xffffff45
    2994:	9a000024 	bls	2a2c <opfunc_cmd_test+0x3d4>
    2998:	e51be14c 	ldr	lr, [fp, #-332]	; 0xfffffeb4
    299c:	e35e0005 	cmp	lr, #5
    29a0:	0a00001a 	beq	2a10 <opfunc_cmd_test+0x3b8>
    29a4:	e51b214c 	ldr	r2, [fp, #-332]	; 0xfffffeb4
    29a8:	e2423006 	sub	r3, r2, #6
    29ac:	e3530009 	cmp	r3, #9
    29b0:	83a09000 	movhi	r9, #0
    29b4:	83a07006 	movhi	r7, #6
    29b8:	8affff78 	bhi	27a0 <opfunc_cmd_test+0x148>
    29bc:	e3a0200d 	mov	r2, #13
    29c0:	e24b1080 	sub	r1, fp, #128	; 0x80
    29c4:	e24b0c01 	sub	r0, fp, #256	; 0x100
    29c8:	e1a09002 	mov	r9, r2
    29cc:	e3a07006 	mov	r7, #6
    29d0:	ebfffffe 	bl	0 <osal_memcpy>
    29d4:	eaffff71 	b	27a0 <opfunc_cmd_test+0x148>
    29d8:	e30026e5 	movw	r2, #1765	; 0x6e5
    29dc:	e59f1090 	ldr	r1, [pc, #144]	; 2a74 <opfunc_cmd_test+0x41c>
    29e0:	e59f00ac 	ldr	r0, [pc, #172]	; 2a94 <opfunc_cmd_test+0x43c>
    29e4:	ebfffffe 	bl	0 <osal_err_print>
    29e8:	eaffffb8 	b	28d0 <opfunc_cmd_test+0x278>
    29ec:	e51be148 	ldr	lr, [fp, #-328]	; 0xfffffeb8
    29f0:	e2492005 	sub	r2, r9, #5
    29f4:	e1520006 	cmp	r2, r6
    29f8:	21a02006 	movcs	r2, r6
    29fc:	e1a00004 	mov	r0, r4
    2a00:	e2871005 	add	r1, r7, #5
    2a04:	e58e2014 	str	r2, [lr, #20]
    2a08:	ebfffffe 	bl	0 <osal_memcpy>
    2a0c:	eaffffb7 	b	28f0 <opfunc_cmd_test+0x298>
    2a10:	e1a01007 	mov	r1, r7
    2a14:	e3a0200b 	mov	r2, #11
    2a18:	e24b0c01 	sub	r0, fp, #256	; 0x100
    2a1c:	e1a09002 	mov	r9, r2
    2a20:	e3a07006 	mov	r7, #6
    2a24:	ebfffffe 	bl	0 <osal_memcpy>
    2a28:	eaffff5c 	b	27a0 <opfunc_cmd_test+0x148>
    2a2c:	e3a02009 	mov	r2, #9
    2a30:	e24b1064 	sub	r1, fp, #100	; 0x64
    2a34:	e24b0c01 	sub	r0, fp, #256	; 0x100
    2a38:	e1a09002 	mov	r9, r2
    2a3c:	e3a07006 	mov	r7, #6
    2a40:	ebfffffe 	bl	0 <osal_memcpy>
    2a44:	eaffff55 	b	27a0 <opfunc_cmd_test+0x148>
    2a48:	e30026c8 	movw	r2, #1736	; 0x6c8
    2a4c:	e59f1020 	ldr	r1, [pc, #32]	; 2a74 <opfunc_cmd_test+0x41c>
    2a50:	e59f0040 	ldr	r0, [pc, #64]	; 2a98 <opfunc_cmd_test+0x440>
    2a54:	e3a08000 	mov	r8, #0
    2a58:	ebfffffe 	bl	0 <osal_err_print>
    2a5c:	eaffff65 	b	27f8 <opfunc_cmd_test+0x1a0>
    2a60:	0000021c 	andeq	r0, r0, ip, lsl r2
    2a64:	00000000 	andeq	r0, r0, r0
    2a68:	0000025c 	andeq	r0, r0, ip, asr r2
    2a6c:	000015b0 			; <UNDEFINED> instruction: 0x000015b0
    2a70:	000015d4 	ldrdeq	r1, [r0], -r4
    2a74:	0000026c 	andeq	r0, r0, ip, ror #4
    2a78:	000016b0 			; <UNDEFINED> instruction: 0x000016b0
    2a7c:	000015f8 	strdeq	r1, [r0], -r8
    2a80:	000016e4 	andeq	r1, r0, r4, ror #13
    2a84:	00001730 	andeq	r1, r0, r0, lsr r7
    2a88:	00001758 	andeq	r1, r0, r8, asr r7
    2a8c:	0000167c 	andeq	r1, r0, ip, ror r6
    2a90:	00001620 	andeq	r1, r0, r0, lsr #12
    2a94:	00001768 	andeq	r1, r0, r8, ror #14
    2a98:	00001658 	andeq	r1, r0, r8, asr r6

00002a9c <opfunc_lpbk>:
    2a9c:	e1a0c00d 	mov	ip, sp
    2aa0:	e92ddff0 	push	{r4, r5, r6, r7, r8, r9, sl, fp, ip, lr, pc}
    2aa4:	e24cb004 	sub	fp, ip, #4
    2aa8:	e24dd044 	sub	sp, sp, #68	; 0x44
    2aac:	e59f320c 	ldr	r3, [pc, #524]	; 2cc0 <opfunc_lpbk+0x224>
    2ab0:	e1a09000 	mov	r9, r0
    2ab4:	e24b7040 	sub	r7, fp, #64	; 0x40
    2ab8:	e59fe204 	ldr	lr, [pc, #516]	; 2cc4 <opfunc_lpbk+0x228>
    2abc:	e283c008 	add	ip, r3, #8
    2ac0:	e3a02000 	mov	r2, #0
    2ac4:	e8930003 	ldm	r3, {r0, r1}
    2ac8:	e59ee000 	ldr	lr, [lr]
    2acc:	e50b2038 	str	r2, [fp, #-56]	; 0xffffffc8
    2ad0:	e50b0040 	str	r0, [fp, #-64]	; 0xffffffc0
    2ad4:	e35e0003 	cmp	lr, #3
    2ad8:	e5c71004 	strb	r1, [r7, #4]
    2adc:	e89c0003 	ldm	ip, {r0, r1}
    2ae0:	e50b2034 	str	r2, [fp, #-52]	; 0xffffffcc
    2ae4:	e599a008 	ldr	sl, [r9, #8]
    2ae8:	e50b0048 	str	r0, [fp, #-72]	; 0xffffffb8
    2aec:	e54b1044 	strb	r1, [fp, #-68]	; 0xffffffbc
    2af0:	e599200c 	ldr	r2, [r9, #12]
    2af4:	e50b2050 	str	r2, [fp, #-80]	; 0xffffffb0
    2af8:	8a00003c 	bhi	2bf0 <opfunc_lpbk+0x154>
    2afc:	e59f41c4 	ldr	r4, [pc, #452]	; 2cc8 <opfunc_lpbk+0x22c>
    2b00:	e5948020 	ldr	r8, [r4, #32]
    2b04:	e3580002 	cmp	r8, #2
    2b08:	1a00003c 	bne	2c00 <opfunc_lpbk+0x164>
    2b0c:	e28a5005 	add	r5, sl, #5
    2b10:	e3550b01 	cmp	r5, #1024	; 0x400
    2b14:	8a000039 	bhi	2c00 <opfunc_lpbk+0x164>
    2b18:	e24b602c 	sub	r6, fp, #44	; 0x2c
    2b1c:	e3a01000 	mov	r1, #0
    2b20:	e3a02b01 	mov	r2, #1024	; 0x400
    2b24:	e2840054 	add	r0, r4, #84	; 0x54
    2b28:	ebfffffe 	bl	0 <osal_memset>
    2b2c:	e28a3001 	add	r3, sl, #1
    2b30:	e1a02008 	mov	r2, r8
    2b34:	e16630b2 	strh	r3, [r6, #-2]!
    2b38:	e2870002 	add	r0, r7, #2
    2b3c:	e1a01006 	mov	r1, r6
    2b40:	ebfffffe 	bl	0 <osal_memcpy>
    2b44:	e24b3048 	sub	r3, fp, #72	; 0x48
    2b48:	e2830002 	add	r0, r3, #2
    2b4c:	e1a01006 	mov	r1, r6
    2b50:	e1a02008 	mov	r2, r8
    2b54:	ebfffffe 	bl	0 <osal_memcpy>
    2b58:	e1a01007 	mov	r1, r7
    2b5c:	e3a02005 	mov	r2, #5
    2b60:	e2840054 	add	r0, r4, #84	; 0x54
    2b64:	ebfffffe 	bl	0 <osal_memcpy>
    2b68:	e51b1050 	ldr	r1, [fp, #-80]	; 0xffffffb0
    2b6c:	e1a0200a 	mov	r2, sl
    2b70:	e2840059 	add	r0, r4, #89	; 0x59
    2b74:	ebfffffe 	bl	0 <osal_memcpy>
    2b78:	e2840054 	add	r0, r4, #84	; 0x54
    2b7c:	e1a01005 	mov	r1, r5
    2b80:	e24b2034 	sub	r2, fp, #52	; 0x34
    2b84:	e3a03000 	mov	r3, #0
    2b88:	ebfffffe 	bl	10e4 <wmt_core_tx>
    2b8c:	e3500000 	cmp	r0, #0
    2b90:	1a000010 	bne	2bd8 <opfunc_lpbk+0x13c>
    2b94:	e2840054 	add	r0, r4, #84	; 0x54
    2b98:	e1a01005 	mov	r1, r5
    2b9c:	e24b2038 	sub	r2, fp, #56	; 0x38
    2ba0:	ebfffffe 	bl	8b4 <wmt_core_rx>
    2ba4:	e3500000 	cmp	r0, #0
    2ba8:	1a00001f 	bne	2c2c <opfunc_lpbk+0x190>
    2bac:	e51b3038 	ldr	r3, [fp, #-56]	; 0xffffffc8
    2bb0:	e1550003 	cmp	r5, r3
    2bb4:	0a000022 	beq	2c44 <opfunc_lpbk+0x1a8>
    2bb8:	e59f010c 	ldr	r0, [pc, #268]	; 2ccc <opfunc_lpbk+0x230>
    2bbc:	e300265f 	movw	r2, #1631	; 0x65f
    2bc0:	e59f1108 	ldr	r1, [pc, #264]	; 2cd0 <opfunc_lpbk+0x234>
    2bc4:	e58d5000 	str	r5, [sp]
    2bc8:	ebfffffe 	bl	0 <osal_err_print>
    2bcc:	e3a00001 	mov	r0, #1
    2bd0:	e24bd028 	sub	sp, fp, #40	; 0x28
    2bd4:	e89daff0 	ldm	sp, {r4, r5, r6, r7, r8, r9, sl, fp, sp, pc}
    2bd8:	e59f00f4 	ldr	r0, [pc, #244]	; 2cd4 <opfunc_lpbk+0x238>
    2bdc:	e3002654 	movw	r2, #1620	; 0x654
    2be0:	e59f10e8 	ldr	r1, [pc, #232]	; 2cd0 <opfunc_lpbk+0x234>
    2be4:	ebfffffe 	bl	0 <osal_err_print>
    2be8:	e3a00001 	mov	r0, #1
    2bec:	eafffff7 	b	2bd0 <opfunc_lpbk+0x134>
    2bf0:	e2831010 	add	r1, r3, #16
    2bf4:	e59f00dc 	ldr	r0, [pc, #220]	; 2cd8 <opfunc_lpbk+0x23c>
    2bf8:	ebfffffe 	bl	0 <osal_loud_print>
    2bfc:	eaffffbe 	b	2afc <opfunc_lpbk+0x60>
    2c00:	e59f10c8 	ldr	r1, [pc, #200]	; 2cd0 <opfunc_lpbk+0x234>
    2c04:	e300263b 	movw	r2, #1595	; 0x63b
    2c08:	e59f00cc 	ldr	r0, [pc, #204]	; 2cdc <opfunc_lpbk+0x240>
    2c0c:	ebfffffe 	bl	0 <osal_err_print>
    2c10:	e59f00c8 	ldr	r0, [pc, #200]	; 2ce0 <opfunc_lpbk+0x244>
    2c14:	e59f10c8 	ldr	r1, [pc, #200]	; 2ce4 <opfunc_lpbk+0x248>
    2c18:	e300263c 	movw	r2, #1596	; 0x63c
    2c1c:	e59f30c4 	ldr	r3, [pc, #196]	; 2ce8 <opfunc_lpbk+0x24c>
    2c20:	ebfffffe 	bl	0 <osal_err_print>
    2c24:	e3e00001 	mvn	r0, #1
    2c28:	eaffffe8 	b	2bd0 <opfunc_lpbk+0x134>
    2c2c:	e59f00b8 	ldr	r0, [pc, #184]	; 2cec <opfunc_lpbk+0x250>
    2c30:	e300265a 	movw	r2, #1626	; 0x65a
    2c34:	e59f1094 	ldr	r1, [pc, #148]	; 2cd0 <opfunc_lpbk+0x234>
    2c38:	ebfffffe 	bl	0 <osal_err_print>
    2c3c:	e3a00001 	mov	r0, #1
    2c40:	eaffffe2 	b	2bd0 <opfunc_lpbk+0x134>
    2c44:	e24b0048 	sub	r0, fp, #72	; 0x48
    2c48:	e2841054 	add	r1, r4, #84	; 0x54
    2c4c:	e3a02005 	mov	r2, #5
    2c50:	ebfffffe 	bl	0 <osal_memcmp>
    2c54:	e2505000 	subs	r5, r0, #0
    2c58:	0a00000f 	beq	2c9c <opfunc_lpbk+0x200>
    2c5c:	e5d4c058 	ldrb	ip, [r4, #88]	; 0x58
    2c60:	e3002666 	movw	r2, #1638	; 0x666
    2c64:	e5d46054 	ldrb	r6, [r4, #84]	; 0x54
    2c68:	e5d45055 	ldrb	r5, [r4, #85]	; 0x55
    2c6c:	e5d4e056 	ldrb	lr, [r4, #86]	; 0x56
    2c70:	e5d44057 	ldrb	r4, [r4, #87]	; 0x57
    2c74:	e51b3038 	ldr	r3, [fp, #-56]	; 0xffffffc8
    2c78:	e59f0070 	ldr	r0, [pc, #112]	; 2cf0 <opfunc_lpbk+0x254>
    2c7c:	e59f104c 	ldr	r1, [pc, #76]	; 2cd0 <opfunc_lpbk+0x234>
    2c80:	e58d6000 	str	r6, [sp]
    2c84:	e98d4020 	stmib	sp, {r5, lr}
    2c88:	e58d400c 	str	r4, [sp, #12]
    2c8c:	e58dc010 	str	ip, [sp, #16]
    2c90:	ebfffffe 	bl	0 <osal_err_print>
    2c94:	e3a00001 	mov	r0, #1
    2c98:	eaffffcc 	b	2bd0 <opfunc_lpbk+0x134>
    2c9c:	e51b3038 	ldr	r3, [fp, #-56]	; 0xffffffc8
    2ca0:	e2841059 	add	r1, r4, #89	; 0x59
    2ca4:	e599000c 	ldr	r0, [r9, #12]
    2ca8:	e1a0200a 	mov	r2, sl
    2cac:	e2433005 	sub	r3, r3, #5
    2cb0:	e5893008 	str	r3, [r9, #8]
    2cb4:	ebfffffe 	bl	0 <osal_memcpy>
    2cb8:	e1a00005 	mov	r0, r5
    2cbc:	eaffffc3 	b	2bd0 <opfunc_lpbk+0x134>
    2cc0:	0000027c 	andeq	r0, r0, ip, ror r2
	...
    2ccc:	00001830 	andeq	r1, r0, r0, lsr r8
    2cd0:	0000028c 	andeq	r0, r0, ip, lsl #5
    2cd4:	000017c8 	andeq	r1, r0, r8, asr #15
    2cd8:	00000b84 	andeq	r0, r0, r4, lsl #23
    2cdc:	00001798 	muleq	r0, r8, r7
    2ce0:	0000026c 	andeq	r0, r0, ip, ror #4
    2ce4:	0000027c 	andeq	r0, r0, ip, ror r2
    2ce8:	000002ac 	andeq	r0, r0, ip, lsr #5
    2cec:	000017fc 	strdeq	r1, [r0], -ip
    2cf0:	00001868 	andeq	r1, r0, r8, ror #16

00002cf4 <opfunc_dsns>:
    2cf4:	e1a0c00d 	mov	ip, sp
    2cf8:	e92ddff0 	push	{r4, r5, r6, r7, r8, r9, sl, fp, ip, lr, pc}
    2cfc:	e24cb004 	sub	fp, ip, #4
    2d00:	e24dd04c 	sub	sp, sp, #76	; 0x4c
    2d04:	e59f4188 	ldr	r4, [pc, #392]	; 2e94 <opfunc_dsns+0x1a0>
    2d08:	e1a05000 	mov	r5, r0
    2d0c:	e5902008 	ldr	r2, [r0, #8]
    2d10:	e24b6040 	sub	r6, fp, #64	; 0x40
    2d14:	e286c004 	add	ip, r6, #4
    2d18:	e3a0e000 	mov	lr, #0
    2d1c:	e24b7030 	sub	r7, fp, #48	; 0x30
    2d20:	e1a0300e 	mov	r3, lr
    2d24:	e5c4204c 	strb	r2, [r4, #76]	; 0x4c
    2d28:	e2840048 	add	r0, r4, #72	; 0x48
    2d2c:	e595500c 	ldr	r5, [r5, #12]
    2d30:	e3a01006 	mov	r1, #6
    2d34:	e48ce004 	str	lr, [ip], #4
    2d38:	e1a02007 	mov	r2, r7
    2d3c:	e48ce004 	str	lr, [ip], #4
    2d40:	e5c4504d 	strb	r5, [r4, #77]	; 0x4d
    2d44:	e58ce000 	str	lr, [ip]
    2d48:	e50be040 	str	lr, [fp, #-64]	; 0xffffffc0
    2d4c:	ebfffffe 	bl	10e4 <wmt_core_tx>
    2d50:	e2505000 	subs	r5, r0, #0
    2d54:	151bc030 	ldrne	ip, [fp, #-48]	; 0xffffffd0
    2d58:	1a000002 	bne	2d68 <opfunc_dsns+0x74>
    2d5c:	e51bc030 	ldr	ip, [fp, #-48]	; 0xffffffd0
    2d60:	e35c0006 	cmp	ip, #6
    2d64:	0a00000a 	beq	2d94 <opfunc_dsns+0xa0>
    2d68:	e59f1128 	ldr	r1, [pc, #296]	; 2e98 <opfunc_dsns+0x1a4>
    2d6c:	e300260c 	movw	r2, #1548	; 0x60c
    2d70:	e1a03005 	mov	r3, r5
    2d74:	e59f0120 	ldr	r0, [pc, #288]	; 2e9c <opfunc_dsns+0x1a8>
    2d78:	e58dc000 	str	ip, [sp]
    2d7c:	e3a0c006 	mov	ip, #6
    2d80:	e58dc004 	str	ip, [sp, #4]
    2d84:	ebfffffe 	bl	0 <osal_err_print>
    2d88:	e1a00005 	mov	r0, r5
    2d8c:	e24bd028 	sub	sp, fp, #40	; 0x28
    2d90:	e89daff0 	ldm	sp, {r4, r5, r6, r7, r8, r9, sl, fp, sp, pc}
    2d94:	e1a02007 	mov	r2, r7
    2d98:	e1a00006 	mov	r0, r6
    2d9c:	e3a01005 	mov	r1, #5
    2da0:	ebfffffe 	bl	8b4 <wmt_core_rx>
    2da4:	e2505000 	subs	r5, r0, #0
    2da8:	151b7030 	ldrne	r7, [fp, #-48]	; 0xffffffd0
    2dac:	1a000002 	bne	2dbc <opfunc_dsns+0xc8>
    2db0:	e51b7030 	ldr	r7, [fp, #-48]	; 0xffffffd0
    2db4:	e3570005 	cmp	r7, #5
    2db8:	0a000008 	beq	2de0 <opfunc_dsns+0xec>
    2dbc:	e59f10d4 	ldr	r1, [pc, #212]	; 2e98 <opfunc_dsns+0x1a4>
    2dc0:	e3002614 	movw	r2, #1556	; 0x614
    2dc4:	e1a03005 	mov	r3, r5
    2dc8:	e59f00d0 	ldr	r0, [pc, #208]	; 2ea0 <opfunc_dsns+0x1ac>
    2dcc:	e3a0c005 	mov	ip, #5
    2dd0:	e88d1080 	stm	sp, {r7, ip}
    2dd4:	ebfffffe 	bl	0 <osal_err_print>
    2dd8:	ebfffffe 	bl	0 <mtk_wcn_stp_dbg_dump_package>
    2ddc:	eaffffe9 	b	2d88 <opfunc_dsns+0x94>
    2de0:	e1a00006 	mov	r0, r6
    2de4:	e2841050 	add	r1, r4, #80	; 0x50
    2de8:	e1a02007 	mov	r2, r7
    2dec:	ebfffffe 	bl	0 <osal_memcmp>
    2df0:	e3500000 	cmp	r0, #0
    2df4:	1a000007 	bne	2e18 <opfunc_dsns+0x124>
    2df8:	e59f30a4 	ldr	r3, [pc, #164]	; 2ea4 <opfunc_dsns+0x1b0>
    2dfc:	e5933000 	ldr	r3, [r3]
    2e00:	e3530001 	cmp	r3, #1
    2e04:	9affffdf 	bls	2d88 <opfunc_dsns+0x94>
    2e08:	e59f1088 	ldr	r1, [pc, #136]	; 2e98 <opfunc_dsns+0x1a4>
    2e0c:	e59f0094 	ldr	r0, [pc, #148]	; 2ea8 <opfunc_dsns+0x1b4>
    2e10:	ebfffffe 	bl	0 <osal_info_print>
    2e14:	eaffffdb 	b	2d88 <opfunc_dsns+0x94>
    2e18:	e59f1078 	ldr	r1, [pc, #120]	; 2e98 <opfunc_dsns+0x1a4>
    2e1c:	e300261a 	movw	r2, #1562	; 0x61a
    2e20:	e59f0084 	ldr	r0, [pc, #132]	; 2eac <opfunc_dsns+0x1b8>
    2e24:	ebfffffe 	bl	0 <osal_err_print>
    2e28:	e5d41054 	ldrb	r1, [r4, #84]	; 0x54
    2e2c:	e55be040 	ldrb	lr, [fp, #-64]	; 0xffffffc0
    2e30:	e300261d 	movw	r2, #1565	; 0x61d
    2e34:	e55bc03f 	ldrb	ip, [fp, #-63]	; 0xffffffc1
    2e38:	e58d1028 	str	r1, [sp, #40]	; 0x28
    2e3c:	e5d41051 	ldrb	r1, [r4, #81]	; 0x51
    2e40:	e5d49050 	ldrb	r9, [r4, #80]	; 0x50
    2e44:	e55b603e 	ldrb	r6, [fp, #-62]	; 0xffffffc2
    2e48:	e58d101c 	str	r1, [sp, #28]
    2e4c:	e5d41052 	ldrb	r1, [r4, #82]	; 0x52
    2e50:	e55b803d 	ldrb	r8, [fp, #-61]	; 0xffffffc3
    2e54:	e55ba03c 	ldrb	sl, [fp, #-60]	; 0xffffffc4
    2e58:	e58d1020 	str	r1, [sp, #32]
    2e5c:	e5d44053 	ldrb	r4, [r4, #83]	; 0x53
    2e60:	e51b3030 	ldr	r3, [fp, #-48]	; 0xffffffd0
    2e64:	e59f102c 	ldr	r1, [pc, #44]	; 2e98 <opfunc_dsns+0x1a4>
    2e68:	e59f0040 	ldr	r0, [pc, #64]	; 2eb0 <opfunc_dsns+0x1bc>
    2e6c:	e58de000 	str	lr, [sp]
    2e70:	e58dc004 	str	ip, [sp, #4]
    2e74:	e58d6008 	str	r6, [sp, #8]
    2e78:	e58d800c 	str	r8, [sp, #12]
    2e7c:	e58da010 	str	sl, [sp, #16]
    2e80:	e58d7014 	str	r7, [sp, #20]
    2e84:	e58d9018 	str	r9, [sp, #24]
    2e88:	e58d4024 	str	r4, [sp, #36]	; 0x24
    2e8c:	ebfffffe 	bl	0 <osal_err_print>
    2e90:	eaffffbc 	b	2d88 <opfunc_dsns+0x94>
    2e94:	00000000 	andeq	r0, r0, r0
    2e98:	00000298 	muleq	r0, r8, r2
    2e9c:	000018bc 			; <UNDEFINED> instruction: 0x000018bc
    2ea0:	000018f4 	strdeq	r1, [r0], -r4
    2ea4:	00000000 	andeq	r0, r0, r0
    2ea8:	0000195c 	andeq	r1, r0, ip, asr r9
    2eac:	0000192c 	andeq	r1, r0, ip, lsr #18
    2eb0:	00000a30 	andeq	r0, r0, r0, lsr sl

00002eb4 <opfunc_pwr_sv>:
    2eb4:	e1a0c00d 	mov	ip, sp
    2eb8:	e92ddff0 	push	{r4, r5, r6, r7, r8, r9, sl, fp, ip, lr, pc}
    2ebc:	e24cb004 	sub	fp, ip, #4
    2ec0:	e24dd054 	sub	sp, sp, #84	; 0x54
    2ec4:	e5902008 	ldr	r2, [r0, #8]
    2ec8:	e3a01000 	mov	r1, #0
    2ecc:	e24b7040 	sub	r7, fp, #64	; 0x40
    2ed0:	e1a04000 	mov	r4, r0
    2ed4:	e2873004 	add	r3, r7, #4
    2ed8:	e1520001 	cmp	r2, r1
    2edc:	e50b1040 	str	r1, [fp, #-64]	; 0xffffffc0
    2ee0:	e4831004 	str	r1, [r3], #4
    2ee4:	e4831004 	str	r1, [r3], #4
    2ee8:	e5831000 	str	r1, [r3]
    2eec:	1a000019 	bne	2f58 <opfunc_pwr_sv+0xa4>
    2ef0:	e59f64c0 	ldr	r6, [pc, #1216]	; 33b8 <opfunc_pwr_sv+0x504>
    2ef4:	e5963000 	ldr	r3, [r6]
    2ef8:	e3530002 	cmp	r3, #2
    2efc:	8a000040 	bhi	3004 <opfunc_pwr_sv+0x150>
    2f00:	e24b8030 	sub	r8, fp, #48	; 0x30
    2f04:	e59f04b0 	ldr	r0, [pc, #1200]	; 33bc <opfunc_pwr_sv+0x508>
    2f08:	e3a01005 	mov	r1, #5
    2f0c:	e1a02008 	mov	r2, r8
    2f10:	e3a03000 	mov	r3, #0
    2f14:	ebfffffe 	bl	10e4 <wmt_core_tx>
    2f18:	e2505000 	subs	r5, r0, #0
    2f1c:	151bc030 	ldrne	ip, [fp, #-48]	; 0xffffffd0
    2f20:	1a000002 	bne	2f30 <opfunc_pwr_sv+0x7c>
    2f24:	e51bc030 	ldr	ip, [fp, #-48]	; 0xffffffd0
    2f28:	e35c0005 	cmp	ip, #5
    2f2c:	0a00005e 	beq	30ac <opfunc_pwr_sv+0x1f8>
    2f30:	e59f0488 	ldr	r0, [pc, #1160]	; 33c0 <opfunc_pwr_sv+0x50c>
    2f34:	e3002584 	movw	r2, #1412	; 0x584
    2f38:	e59f1484 	ldr	r1, [pc, #1156]	; 33c4 <opfunc_pwr_sv+0x510>
    2f3c:	e1a03005 	mov	r3, r5
    2f40:	e58dc000 	str	ip, [sp]
    2f44:	e3a0c005 	mov	ip, #5
    2f48:	e58dc004 	str	ip, [sp, #4]
    2f4c:	ebfffffe 	bl	0 <osal_err_print>
    2f50:	e5942008 	ldr	r2, [r4, #8]
    2f54:	ea00001c 	b	2fcc <opfunc_pwr_sv+0x118>
    2f58:	e3520002 	cmp	r2, #2
    2f5c:	1a00003c 	bne	3054 <opfunc_pwr_sv+0x1a0>
    2f60:	e59f6450 	ldr	r6, [pc, #1104]	; 33b8 <opfunc_pwr_sv+0x504>
    2f64:	e5963000 	ldr	r3, [r6]
    2f68:	e3530002 	cmp	r3, #2
    2f6c:	8a000034 	bhi	3044 <opfunc_pwr_sv+0x190>
    2f70:	e3a01001 	mov	r1, #1
    2f74:	e24b8030 	sub	r8, fp, #48	; 0x30
    2f78:	e59f0448 	ldr	r0, [pc, #1096]	; 33c8 <opfunc_pwr_sv+0x514>
    2f7c:	e1a02008 	mov	r2, r8
    2f80:	e1a03001 	mov	r3, r1
    2f84:	ebfffffe 	bl	10e4 <wmt_core_tx>
    2f88:	e2505000 	subs	r5, r0, #0
    2f8c:	1a000002 	bne	2f9c <opfunc_pwr_sv+0xe8>
    2f90:	e51b3030 	ldr	r3, [fp, #-48]	; 0xffffffd0
    2f94:	e3530001 	cmp	r3, #1
    2f98:	0a00005a 	beq	3108 <opfunc_pwr_sv+0x254>
    2f9c:	e3a00004 	mov	r0, #4
    2fa0:	ebfffffe 	bl	840 <wmt_core_rx_flush>
    2fa4:	e51bc030 	ldr	ip, [fp, #-48]	; 0xffffffd0
    2fa8:	e30025aa 	movw	r2, #1450	; 0x5aa
    2fac:	e59f0418 	ldr	r0, [pc, #1048]	; 33cc <opfunc_pwr_sv+0x518>
    2fb0:	e59f140c 	ldr	r1, [pc, #1036]	; 33c4 <opfunc_pwr_sv+0x510>
    2fb4:	e1a03005 	mov	r3, r5
    2fb8:	e58dc000 	str	ip, [sp]
    2fbc:	e3a0c001 	mov	ip, #1
    2fc0:	e58dc004 	str	ip, [sp, #4]
    2fc4:	ebfffffe 	bl	0 <osal_err_print>
    2fc8:	e5942008 	ldr	r2, [r4, #8]
    2fcc:	e3520004 	cmp	r2, #4
    2fd0:	8a000008 	bhi	2ff8 <opfunc_pwr_sv+0x144>
    2fd4:	e59f33dc 	ldr	r3, [pc, #988]	; 33b8 <opfunc_pwr_sv+0x504>
    2fd8:	e594600c 	ldr	r6, [r4, #12]
    2fdc:	e5933000 	ldr	r3, [r3]
    2fe0:	e3530002 	cmp	r3, #2
    2fe4:	8a00000a 	bhi	3014 <opfunc_pwr_sv+0x160>
    2fe8:	e3560000 	cmp	r6, #0
    2fec:	0a00000e 	beq	302c <opfunc_pwr_sv+0x178>
    2ff0:	e5940008 	ldr	r0, [r4, #8]
    2ff4:	e12fff36 	blx	r6
    2ff8:	e1a00005 	mov	r0, r5
    2ffc:	e24bd028 	sub	sp, fp, #40	; 0x28
    3000:	e89daff0 	ldm	sp, {r4, r5, r6, r7, r8, r9, sl, fp, sp, pc}
    3004:	e59f13b8 	ldr	r1, [pc, #952]	; 33c4 <opfunc_pwr_sv+0x510>
    3008:	e59f03c0 	ldr	r0, [pc, #960]	; 33d0 <opfunc_pwr_sv+0x51c>
    300c:	ebfffffe 	bl	0 <osal_dbg_print>
    3010:	eaffffba 	b	2f00 <opfunc_pwr_sv+0x4c>
    3014:	e59f03b8 	ldr	r0, [pc, #952]	; 33d4 <opfunc_pwr_sv+0x520>
    3018:	e1a03006 	mov	r3, r6
    301c:	e59f13a0 	ldr	r1, [pc, #928]	; 33c4 <opfunc_pwr_sv+0x510>
    3020:	ebfffffe 	bl	0 <osal_dbg_print>
    3024:	e3560000 	cmp	r6, #0
    3028:	1afffff0 	bne	2ff0 <opfunc_pwr_sv+0x13c>
    302c:	e1a03006 	mov	r3, r6
    3030:	e59f138c 	ldr	r1, [pc, #908]	; 33c4 <opfunc_pwr_sv+0x510>
    3034:	e30025f6 	movw	r2, #1526	; 0x5f6
    3038:	e59f0398 	ldr	r0, [pc, #920]	; 33d8 <opfunc_pwr_sv+0x524>
    303c:	ebfffffe 	bl	0 <osal_err_print>
    3040:	eaffffec 	b	2ff8 <opfunc_pwr_sv+0x144>
    3044:	e59f1378 	ldr	r1, [pc, #888]	; 33c4 <opfunc_pwr_sv+0x510>
    3048:	e59f038c 	ldr	r0, [pc, #908]	; 33dc <opfunc_pwr_sv+0x528>
    304c:	ebfffffe 	bl	0 <osal_dbg_print>
    3050:	eaffffc6 	b	2f70 <opfunc_pwr_sv+0xbc>
    3054:	e3520001 	cmp	r2, #1
    3058:	13e05000 	mvnne	r5, #0
    305c:	1affffda 	bne	2fcc <opfunc_pwr_sv+0x118>
    3060:	e59f6350 	ldr	r6, [pc, #848]	; 33b8 <opfunc_pwr_sv+0x504>
    3064:	e5963000 	ldr	r3, [r6]
    3068:	e3530002 	cmp	r3, #2
    306c:	8a000051 	bhi	31b8 <opfunc_pwr_sv+0x304>
    3070:	e24b8030 	sub	r8, fp, #48	; 0x30
    3074:	e59f0364 	ldr	r0, [pc, #868]	; 33e0 <opfunc_pwr_sv+0x52c>
    3078:	e3a01005 	mov	r1, #5
    307c:	e1a02008 	mov	r2, r8
    3080:	e3a03000 	mov	r3, #0
    3084:	ebfffffe 	bl	10e4 <wmt_core_tx>
    3088:	e2505000 	subs	r5, r0, #0
    308c:	151bc030 	ldrne	ip, [fp, #-48]	; 0xffffffd0
    3090:	1a000002 	bne	30a0 <opfunc_pwr_sv+0x1ec>
    3094:	e51bc030 	ldr	ip, [fp, #-48]	; 0xffffffd0
    3098:	e35c0005 	cmp	ip, #5
    309c:	0a00007a 	beq	328c <opfunc_pwr_sv+0x3d8>
    30a0:	e59f033c 	ldr	r0, [pc, #828]	; 33e4 <opfunc_pwr_sv+0x530>
    30a4:	e30025cf 	movw	r2, #1487	; 0x5cf
    30a8:	eaffffa2 	b	2f38 <opfunc_pwr_sv+0x84>
    30ac:	e1a02008 	mov	r2, r8
    30b0:	e1a00007 	mov	r0, r7
    30b4:	e3a01006 	mov	r1, #6
    30b8:	ebfffffe 	bl	8b4 <wmt_core_rx>
    30bc:	e2505000 	subs	r5, r0, #0
    30c0:	1a000002 	bne	30d0 <opfunc_pwr_sv+0x21c>
    30c4:	e51b8030 	ldr	r8, [fp, #-48]	; 0xffffffd0
    30c8:	e3580006 	cmp	r8, #6
    30cc:	0a00001d 	beq	3148 <opfunc_pwr_sv+0x294>
    30d0:	e3a00004 	mov	r0, #4
    30d4:	ebfffffe 	bl	840 <wmt_core_rx_flush>
    30d8:	e51bc030 	ldr	ip, [fp, #-48]	; 0xffffffd0
    30dc:	e59f12e0 	ldr	r1, [pc, #736]	; 33c4 <opfunc_pwr_sv+0x510>
    30e0:	e300258d 	movw	r2, #1421	; 0x58d
    30e4:	e59f02fc 	ldr	r0, [pc, #764]	; 33e8 <opfunc_pwr_sv+0x534>
    30e8:	e1a03005 	mov	r3, r5
    30ec:	e58dc000 	str	ip, [sp]
    30f0:	e3a0c006 	mov	ip, #6
    30f4:	e58dc004 	str	ip, [sp, #4]
    30f8:	ebfffffe 	bl	0 <osal_err_print>
    30fc:	ebfffffe 	bl	0 <mtk_wcn_stp_dbg_dump_package>
    3100:	e5942008 	ldr	r2, [r4, #8]
    3104:	eaffffb0 	b	2fcc <opfunc_pwr_sv+0x118>
    3108:	e1a02008 	mov	r2, r8
    310c:	e1a00007 	mov	r0, r7
    3110:	e3a01006 	mov	r1, #6
    3114:	ebfffffe 	bl	8b4 <wmt_core_rx>
    3118:	e2505000 	subs	r5, r0, #0
    311c:	151b8030 	ldrne	r8, [fp, #-48]	; 0xffffffd0
    3120:	1a000002 	bne	3130 <opfunc_pwr_sv+0x27c>
    3124:	e51b8030 	ldr	r8, [fp, #-48]	; 0xffffffd0
    3128:	e3580006 	cmp	r8, #6
    312c:	0a000013 	beq	3180 <opfunc_pwr_sv+0x2cc>
    3130:	e59f128c 	ldr	r1, [pc, #652]	; 33c4 <opfunc_pwr_sv+0x510>
    3134:	e30025b2 	movw	r2, #1458	; 0x5b2
    3138:	e1a03005 	mov	r3, r5
    313c:	e59f02a8 	ldr	r0, [pc, #680]	; 33ec <opfunc_pwr_sv+0x538>
    3140:	e58d8000 	str	r8, [sp]
    3144:	eaffffe9 	b	30f0 <opfunc_pwr_sv+0x23c>
    3148:	e1a00007 	mov	r0, r7
    314c:	e59f129c 	ldr	r1, [pc, #668]	; 33f0 <opfunc_pwr_sv+0x53c>
    3150:	e1a02008 	mov	r2, r8
    3154:	ebfffffe 	bl	0 <osal_memcmp>
    3158:	e3500000 	cmp	r0, #0
    315c:	1a000027 	bne	3200 <opfunc_pwr_sv+0x34c>
    3160:	e5963000 	ldr	r3, [r6]
    3164:	e3530001 	cmp	r3, #1
    3168:	9a000022 	bls	31f8 <opfunc_pwr_sv+0x344>
    316c:	e59f0280 	ldr	r0, [pc, #640]	; 33f4 <opfunc_pwr_sv+0x540>
    3170:	e59f124c 	ldr	r1, [pc, #588]	; 33c4 <opfunc_pwr_sv+0x510>
    3174:	ebfffffe 	bl	0 <osal_info_print>
    3178:	e5942008 	ldr	r2, [r4, #8]
    317c:	eaffff92 	b	2fcc <opfunc_pwr_sv+0x118>
    3180:	e1a00007 	mov	r0, r7
    3184:	e59f126c 	ldr	r1, [pc, #620]	; 33f8 <opfunc_pwr_sv+0x544>
    3188:	e1a02008 	mov	r2, r8
    318c:	ebfffffe 	bl	0 <osal_memcmp>
    3190:	e3500000 	cmp	r0, #0
    3194:	1a00004e 	bne	32d4 <opfunc_pwr_sv+0x420>
    3198:	e5963000 	ldr	r3, [r6]
    319c:	e3530001 	cmp	r3, #1
    31a0:	9a000014 	bls	31f8 <opfunc_pwr_sv+0x344>
    31a4:	e59f0250 	ldr	r0, [pc, #592]	; 33fc <opfunc_pwr_sv+0x548>
    31a8:	e59f1214 	ldr	r1, [pc, #532]	; 33c4 <opfunc_pwr_sv+0x510>
    31ac:	ebfffffe 	bl	0 <osal_info_print>
    31b0:	e5942008 	ldr	r2, [r4, #8]
    31b4:	eaffff84 	b	2fcc <opfunc_pwr_sv+0x118>
    31b8:	e59f1204 	ldr	r1, [pc, #516]	; 33c4 <opfunc_pwr_sv+0x510>
    31bc:	e59f023c 	ldr	r0, [pc, #572]	; 3400 <opfunc_pwr_sv+0x54c>
    31c0:	ebfffffe 	bl	0 <osal_dbg_print>
    31c4:	eaffffa9 	b	3070 <opfunc_pwr_sv+0x1bc>
    31c8:	e1a00007 	mov	r0, r7
    31cc:	e59f1230 	ldr	r1, [pc, #560]	; 3404 <opfunc_pwr_sv+0x550>
    31d0:	e1a02008 	mov	r2, r8
    31d4:	ebfffffe 	bl	0 <osal_memcmp>
    31d8:	e3500000 	cmp	r0, #0
    31dc:	1a000059 	bne	3348 <opfunc_pwr_sv+0x494>
    31e0:	e5963000 	ldr	r3, [r6]
    31e4:	e3530001 	cmp	r3, #1
    31e8:	9a000002 	bls	31f8 <opfunc_pwr_sv+0x344>
    31ec:	e59f0214 	ldr	r0, [pc, #532]	; 3408 <opfunc_pwr_sv+0x554>
    31f0:	e59f11cc 	ldr	r1, [pc, #460]	; 33c4 <opfunc_pwr_sv+0x510>
    31f4:	ebfffffe 	bl	0 <osal_info_print>
    31f8:	e5942008 	ldr	r2, [r4, #8]
    31fc:	eaffff72 	b	2fcc <opfunc_pwr_sv+0x118>
    3200:	e59f11bc 	ldr	r1, [pc, #444]	; 33c4 <opfunc_pwr_sv+0x510>
    3204:	e3002594 	movw	r2, #1428	; 0x594
    3208:	e59f01fc 	ldr	r0, [pc, #508]	; 340c <opfunc_pwr_sv+0x558>
    320c:	ebfffffe 	bl	0 <osal_err_print>
    3210:	e3a00004 	mov	r0, #4
    3214:	ebfffffe 	bl	840 <wmt_core_rx_flush>
    3218:	e55b103c 	ldrb	r1, [fp, #-60]	; 0xffffffc4
    321c:	e55be03b 	ldrb	lr, [fp, #-59]	; 0xffffffc5
    3220:	e3002599 	movw	r2, #1433	; 0x599
    3224:	e55b6040 	ldrb	r6, [fp, #-64]	; 0xffffffc0
    3228:	e3a0c002 	mov	ip, #2
    322c:	e55b703f 	ldrb	r7, [fp, #-63]	; 0xffffffc1
    3230:	e55ba03e 	ldrb	sl, [fp, #-62]	; 0xffffffc2
    3234:	e55b903d 	ldrb	r9, [fp, #-61]	; 0xffffffc3
    3238:	e58d1010 	str	r1, [sp, #16]
    323c:	e51b3030 	ldr	r3, [fp, #-48]	; 0xffffffd0
    3240:	e59f117c 	ldr	r1, [pc, #380]	; 33c4 <opfunc_pwr_sv+0x510>
    3244:	e59f01c4 	ldr	r0, [pc, #452]	; 3410 <opfunc_pwr_sv+0x55c>
    3248:	e58de014 	str	lr, [sp, #20]
    324c:	e3a0e003 	mov	lr, #3
    3250:	e58d6000 	str	r6, [sp]
    3254:	e58de020 	str	lr, [sp, #32]
    3258:	e3a0e001 	mov	lr, #1
    325c:	e98d0480 	stmib	sp, {r7, sl}
    3260:	e58d900c 	str	r9, [sp, #12]
    3264:	e58d8018 	str	r8, [sp, #24]
    3268:	e58dc024 	str	ip, [sp, #36]	; 0x24
    326c:	e58de030 	str	lr, [sp, #48]	; 0x30
    3270:	e58dc01c 	str	ip, [sp, #28]
    3274:	e58d5028 	str	r5, [sp, #40]	; 0x28
    3278:	e58d502c 	str	r5, [sp, #44]	; 0x2c
    327c:	ebfffffe 	bl	0 <osal_err_print>
    3280:	ebfffffe 	bl	0 <mtk_wcn_stp_dbg_dump_package>
    3284:	e5942008 	ldr	r2, [r4, #8]
    3288:	eaffff4f 	b	2fcc <opfunc_pwr_sv+0x118>
    328c:	e1a02008 	mov	r2, r8
    3290:	e1a00007 	mov	r0, r7
    3294:	e3a01006 	mov	r1, #6
    3298:	ebfffffe 	bl	8b4 <wmt_core_rx>
    329c:	e2505000 	subs	r5, r0, #0
    32a0:	1a000002 	bne	32b0 <opfunc_pwr_sv+0x3fc>
    32a4:	e51b8030 	ldr	r8, [fp, #-48]	; 0xffffffd0
    32a8:	e3580006 	cmp	r8, #6
    32ac:	0affffc5 	beq	31c8 <opfunc_pwr_sv+0x314>
    32b0:	e3a00004 	mov	r0, #4
    32b4:	ebfffffe 	bl	840 <wmt_core_rx_flush>
    32b8:	e51bc030 	ldr	ip, [fp, #-48]	; 0xffffffd0
    32bc:	e59f1100 	ldr	r1, [pc, #256]	; 33c4 <opfunc_pwr_sv+0x510>
    32c0:	e30025d8 	movw	r2, #1496	; 0x5d8
    32c4:	e1a03005 	mov	r3, r5
    32c8:	e59f0144 	ldr	r0, [pc, #324]	; 3414 <opfunc_pwr_sv+0x560>
    32cc:	e58dc000 	str	ip, [sp]
    32d0:	eaffff86 	b	30f0 <opfunc_pwr_sv+0x23c>
    32d4:	e59f10e8 	ldr	r1, [pc, #232]	; 33c4 <opfunc_pwr_sv+0x510>
    32d8:	e30025b9 	movw	r2, #1465	; 0x5b9
    32dc:	e59f0134 	ldr	r0, [pc, #308]	; 3418 <opfunc_pwr_sv+0x564>
    32e0:	ebfffffe 	bl	0 <osal_err_print>
    32e4:	e3a00004 	mov	r0, #4
    32e8:	ebfffffe 	bl	840 <wmt_core_rx_flush>
    32ec:	e55b603d 	ldrb	r6, [fp, #-61]	; 0xffffffc3
    32f0:	e55b103c 	ldrb	r1, [fp, #-60]	; 0xffffffc4
    32f4:	e3a0c002 	mov	ip, #2
    32f8:	e55b7040 	ldrb	r7, [fp, #-64]	; 0xffffffc0
    32fc:	e30025be 	movw	r2, #1470	; 0x5be
    3300:	e55ba03f 	ldrb	sl, [fp, #-63]	; 0xffffffc1
    3304:	e55b903e 	ldrb	r9, [fp, #-62]	; 0xffffffc2
    3308:	e55be03b 	ldrb	lr, [fp, #-59]	; 0xffffffc5
    330c:	e58d600c 	str	r6, [sp, #12]
    3310:	e3a06003 	mov	r6, #3
    3314:	e58d1010 	str	r1, [sp, #16]
    3318:	e51b3030 	ldr	r3, [fp, #-48]	; 0xffffffd0
    331c:	e59f10a0 	ldr	r1, [pc, #160]	; 33c4 <opfunc_pwr_sv+0x510>
    3320:	e59f00e8 	ldr	r0, [pc, #232]	; 3410 <opfunc_pwr_sv+0x55c>
    3324:	e88d0480 	stm	sp, {r7, sl}
    3328:	e58d9008 	str	r9, [sp, #8]
    332c:	e58de014 	str	lr, [sp, #20]
    3330:	e58d8018 	str	r8, [sp, #24]
    3334:	e58dc024 	str	ip, [sp, #36]	; 0x24
    3338:	e58d6030 	str	r6, [sp, #48]	; 0x30
    333c:	e58dc01c 	str	ip, [sp, #28]
    3340:	e58d6020 	str	r6, [sp, #32]
    3344:	eaffffca 	b	3274 <opfunc_pwr_sv+0x3c0>
    3348:	e59f1074 	ldr	r1, [pc, #116]	; 33c4 <opfunc_pwr_sv+0x510>
    334c:	e30025df 	movw	r2, #1503	; 0x5df
    3350:	e59f00c4 	ldr	r0, [pc, #196]	; 341c <opfunc_pwr_sv+0x568>
    3354:	ebfffffe 	bl	0 <osal_err_print>
    3358:	e3a00004 	mov	r0, #4
    335c:	ebfffffe 	bl	840 <wmt_core_rx_flush>
    3360:	e55b303c 	ldrb	r3, [fp, #-60]	; 0xffffffc4
    3364:	e55be03b 	ldrb	lr, [fp, #-59]	; 0xffffffc5
    3368:	e3a0c002 	mov	ip, #2
    336c:	e55b6040 	ldrb	r6, [fp, #-64]	; 0xffffffc0
    3370:	e30025e4 	movw	r2, #1508	; 0x5e4
    3374:	e55b703f 	ldrb	r7, [fp, #-63]	; 0xffffffc1
    3378:	e55ba03e 	ldrb	sl, [fp, #-62]	; 0xffffffc2
    337c:	e55b903d 	ldrb	r9, [fp, #-61]	; 0xffffffc3
    3380:	e58d3010 	str	r3, [sp, #16]
    3384:	e58de014 	str	lr, [sp, #20]
    3388:	e3a0e003 	mov	lr, #3
    338c:	e59f1030 	ldr	r1, [pc, #48]	; 33c4 <opfunc_pwr_sv+0x510>
    3390:	e51b3030 	ldr	r3, [fp, #-48]	; 0xffffffd0
    3394:	e59f0074 	ldr	r0, [pc, #116]	; 3410 <opfunc_pwr_sv+0x55c>
    3398:	e88d04c0 	stm	sp, {r6, r7, sl}
    339c:	e58d900c 	str	r9, [sp, #12]
    33a0:	e58d8018 	str	r8, [sp, #24]
    33a4:	e58de020 	str	lr, [sp, #32]
    33a8:	e58dc030 	str	ip, [sp, #48]	; 0x30
    33ac:	e58dc01c 	str	ip, [sp, #28]
    33b0:	e58dc024 	str	ip, [sp, #36]	; 0x24
    33b4:	eaffffae 	b	3274 <opfunc_pwr_sv+0x3c0>
    33b8:	00000000 	andeq	r0, r0, r0
    33bc:	000002b4 			; <UNDEFINED> instruction: 0x000002b4
    33c0:	000019b0 			; <UNDEFINED> instruction: 0x000019b0
    33c4:	000002a4 	andeq	r0, r0, r4, lsr #5
    33c8:	000002c4 	andeq	r0, r0, r4, asr #5
    33cc:	00001b28 	andeq	r1, r0, r8, lsr #22
    33d0:	00001988 	andeq	r1, r0, r8, lsl #19
    33d4:	00001d34 	andeq	r1, r0, r4, lsr sp
    33d8:	00001d54 	andeq	r1, r0, r4, asr sp
    33dc:	00001b00 	andeq	r1, r0, r0, lsl #22
    33e0:	000002d0 	ldrdeq	r0, [r0], -r0	; <UNPREDICTABLE>
    33e4:	00001c3c 	andeq	r1, r0, ip, lsr ip
    33e8:	000019f4 	strdeq	r1, [r0], -r4
    33ec:	00001b6c 	andeq	r1, r0, ip, ror #22
    33f0:	000002bc 			; <UNDEFINED> instruction: 0x000002bc
    33f4:	00001ad8 	ldrdeq	r1, [r0], -r8
    33f8:	000002c8 	andeq	r0, r0, r8, asr #5
    33fc:	00001be8 	andeq	r1, r0, r8, ror #23
    3400:	00001c10 	andeq	r1, r0, r0, lsl ip
    3404:	000002d8 	ldrdeq	r0, [r0], -r8
    3408:	00001d08 	andeq	r1, r0, r8, lsl #26
    340c:	00001a34 	andeq	r1, r0, r4, lsr sl
    3410:	00001a6c 	andeq	r1, r0, ip, ror #20
    3414:	00001c84 	andeq	r1, r0, r4, lsl #25
    3418:	00001bac 	andeq	r1, r0, ip, lsr #23
    341c:	00001cc8 	andeq	r1, r0, r8, asr #25

00003420 <wmt_core_func_ctrl_cmd>:
    3420:	e1a0c00d 	mov	ip, sp
    3424:	e92dd8f0 	push	{r4, r5, r6, r7, fp, ip, lr, pc}
    3428:	e24cb004 	sub	fp, ip, #4
    342c:	e24dd058 	sub	sp, sp, #88	; 0x58
    3430:	e24b7048 	sub	r7, fp, #72	; 0x48
    3434:	e1a05000 	mov	r5, r0
    3438:	e1a06001 	mov	r6, r1
    343c:	e3a02024 	mov	r2, #36	; 0x24
    3440:	e3a01000 	mov	r1, #0
    3444:	e1a00007 	mov	r0, r7
    3448:	e24b406c 	sub	r4, fp, #108	; 0x6c
    344c:	ebfffffe 	bl	0 <osal_memset>
    3450:	e3a01000 	mov	r1, #0
    3454:	e3a02024 	mov	r2, #36	; 0x24
    3458:	e1a00004 	mov	r0, r4
    345c:	e3560001 	cmp	r6, #1
    3460:	13a06000 	movne	r6, #0
    3464:	03a06001 	moveq	r6, #1
    3468:	ebfffffe 	bl	0 <osal_memset>
    346c:	e3a0c006 	mov	ip, #6
    3470:	e1a0100c 	mov	r1, ip
    3474:	e3a03000 	mov	r3, #0
    3478:	e1a00007 	mov	r0, r7
    347c:	e24b2024 	sub	r2, fp, #36	; 0x24
    3480:	e3a0e002 	mov	lr, #2
    3484:	e54bc047 	strb	ip, [fp, #-71]	; 0xffffffb9
    3488:	e54b5044 	strb	r5, [fp, #-68]	; 0xffffffbc
    348c:	e3a0c001 	mov	ip, #1
    3490:	e54b6043 	strb	r6, [fp, #-67]	; 0xffffffbd
    3494:	e14be4b6 	strh	lr, [fp, #-70]	; 0xffffffba
    3498:	e54bc048 	strb	ip, [fp, #-72]	; 0xffffffb8
    349c:	ebfffffe 	bl	10e4 <wmt_core_tx>
    34a0:	e2503000 	subs	r3, r0, #0
    34a4:	0a00000b 	beq	34d8 <wmt_core_func_ctrl_cmd+0xb8>
    34a8:	e59f10e8 	ldr	r1, [pc, #232]	; 3598 <wmt_core_func_ctrl_cmd+0x178>
    34ac:	e30021ce 	movw	r2, #462	; 0x1ce
    34b0:	e59f00e4 	ldr	r0, [pc, #228]	; 359c <wmt_core_func_ctrl_cmd+0x17c>
    34b4:	ebfffffe 	bl	0 <osal_err_print>
    34b8:	e59f00e0 	ldr	r0, [pc, #224]	; 35a0 <wmt_core_func_ctrl_cmd+0x180>
    34bc:	e3a02f7e 	mov	r2, #504	; 0x1f8
    34c0:	e59f10d0 	ldr	r1, [pc, #208]	; 3598 <wmt_core_func_ctrl_cmd+0x178>
    34c4:	e55b3044 	ldrb	r3, [fp, #-68]	; 0xffffffbc
    34c8:	ebfffffe 	bl	0 <osal_err_print>
    34cc:	e3e00001 	mvn	r0, #1
    34d0:	e24bd01c 	sub	sp, fp, #28
    34d4:	e89da8f0 	ldm	sp, {r4, r5, r6, r7, fp, sp, pc}
    34d8:	e1a00004 	mov	r0, r4
    34dc:	e3a01005 	mov	r1, #5
    34e0:	e24b2020 	sub	r2, fp, #32
    34e4:	ebfffffe 	bl	8b4 <wmt_core_rx>
    34e8:	e2503000 	subs	r3, r0, #0
    34ec:	1a000011 	bne	3538 <wmt_core_func_ctrl_cmd+0x118>
    34f0:	e55b306c 	ldrb	r3, [fp, #-108]	; 0xffffff94
    34f4:	e3530002 	cmp	r3, #2
    34f8:	0a000004 	beq	3510 <wmt_core_func_ctrl_cmd+0xf0>
    34fc:	e59f1094 	ldr	r1, [pc, #148]	; 3598 <wmt_core_func_ctrl_cmd+0x178>
    3500:	e30021da 	movw	r2, #474	; 0x1da
    3504:	e59f0098 	ldr	r0, [pc, #152]	; 35a4 <wmt_core_func_ctrl_cmd+0x184>
    3508:	ebfffffe 	bl	0 <osal_err_print>
    350c:	eaffffe9 	b	34b8 <wmt_core_func_ctrl_cmd+0x98>
    3510:	e55b3047 	ldrb	r3, [fp, #-71]	; 0xffffffb9
    3514:	e55bc06b 	ldrb	ip, [fp, #-107]	; 0xffffff95
    3518:	e153000c 	cmp	r3, ip
    351c:	0a00000a 	beq	354c <wmt_core_func_ctrl_cmd+0x12c>
    3520:	e59f1070 	ldr	r1, [pc, #112]	; 3598 <wmt_core_func_ctrl_cmd+0x178>
    3524:	e3a02e1e 	mov	r2, #480	; 0x1e0
    3528:	e59f0078 	ldr	r0, [pc, #120]	; 35a8 <wmt_core_func_ctrl_cmd+0x188>
    352c:	e58dc000 	str	ip, [sp]
    3530:	ebfffffe 	bl	0 <osal_err_print>
    3534:	eaffffdf 	b	34b8 <wmt_core_func_ctrl_cmd+0x98>
    3538:	e59f1058 	ldr	r1, [pc, #88]	; 3598 <wmt_core_func_ctrl_cmd+0x178>
    353c:	e3a02f75 	mov	r2, #468	; 0x1d4
    3540:	e59f0064 	ldr	r0, [pc, #100]	; 35ac <wmt_core_func_ctrl_cmd+0x18c>
    3544:	ebfffffe 	bl	0 <osal_err_print>
    3548:	eaffffda 	b	34b8 <wmt_core_func_ctrl_cmd+0x98>
    354c:	e15bc6ba 	ldrh	ip, [fp, #-106]	; 0xffffff96
    3550:	e35c0001 	cmp	ip, #1
    3554:	0a000006 	beq	3574 <wmt_core_func_ctrl_cmd+0x154>
    3558:	e59f1038 	ldr	r1, [pc, #56]	; 3598 <wmt_core_func_ctrl_cmd+0x178>
    355c:	e30021e6 	movw	r2, #486	; 0x1e6
    3560:	e3a03005 	mov	r3, #5
    3564:	e59f0044 	ldr	r0, [pc, #68]	; 35b0 <wmt_core_func_ctrl_cmd+0x190>
    3568:	e58dc000 	str	ip, [sp]
    356c:	ebfffffe 	bl	0 <osal_err_print>
    3570:	eaffffd0 	b	34b8 <wmt_core_func_ctrl_cmd+0x98>
    3574:	e55b0068 	ldrb	r0, [fp, #-104]	; 0xffffff98
    3578:	e3500000 	cmp	r0, #0
    357c:	0affffd3 	beq	34d0 <wmt_core_func_ctrl_cmd+0xb0>
    3580:	e1a03000 	mov	r3, r0
    3584:	e59f100c 	ldr	r1, [pc, #12]	; 3598 <wmt_core_func_ctrl_cmd+0x178>
    3588:	e3a02f7b 	mov	r2, #492	; 0x1ec
    358c:	e59f0020 	ldr	r0, [pc, #32]	; 35b4 <wmt_core_func_ctrl_cmd+0x194>
    3590:	ebfffffe 	bl	0 <osal_err_print>
    3594:	eaffffc7 	b	34b8 <wmt_core_func_ctrl_cmd+0x98>
    3598:	000002e0 	andeq	r0, r0, r0, ror #5
    359c:	00001db4 			; <UNDEFINED> instruction: 0x00001db4
    35a0:	00001f00 	andeq	r1, r0, r0, lsl #30
    35a4:	00001e0c 	andeq	r1, r0, ip, lsl #28
    35a8:	00001e48 	andeq	r1, r0, r8, asr #28
    35ac:	00001de0 	andeq	r1, r0, r0, ror #27
    35b0:	00001e90 	muleq	r0, r0, lr
    35b4:	00001edc 	ldrdeq	r1, [r0], -ip
